
exe/HC32F46x_GCC.elf:     file format elf32-littlearm


Disassembly of section .vectors:

00000000 <__Vectors>:
   0:	20027000 	andcs	r7, r2, r0
   4:	000037fd 	strdeq	r3, [r0], -sp
   8:	00000c6d 	andeq	r0, r0, sp, ror #24
   c:	00000c75 	andeq	r0, r0, r5, ror ip
  10:	00000c7d 	andeq	r0, r0, sp, ror ip
  14:	00000c85 	andeq	r0, r0, r5, lsl #25
  18:	00000c8d 	andeq	r0, r0, sp, lsl #25
	...
  2c:	00000c95 	muleq	r0, r5, ip
  30:	00000c9d 	muleq	r0, sp, ip
  34:	00000000 	andeq	r0, r0, r0
  38:	00000ca5 	andeq	r0, r0, r5, lsr #25
  3c:	00000cad 	andeq	r0, r0, sp, lsr #25
  40:	00000cb5 			; <UNDEFINED> instruction: 0x00000cb5
  44:	00000cc5 	andeq	r0, r0, r5, asr #25
  48:	00000cd5 	ldrdeq	r0, [r0], -r5
  4c:	00000ce5 	andeq	r0, r0, r5, ror #25
  50:	00000cf5 	strdeq	r0, [r0], -r5
  54:	00000d05 	andeq	r0, r0, r5, lsl #26
  58:	00000d15 	andeq	r0, r0, r5, lsl sp
  5c:	00000d25 	andeq	r0, r0, r5, lsr #26
  60:	00000d35 	andeq	r0, r0, r5, lsr sp
  64:	00000d45 	andeq	r0, r0, r5, asr #26
  68:	00000d55 	andeq	r0, r0, r5, asr sp
  6c:	00000d65 	andeq	r0, r0, r5, ror #26
  70:	00000d75 	andeq	r0, r0, r5, ror sp
  74:	00000d85 	andeq	r0, r0, r5, lsl #27
  78:	00000d95 	muleq	r0, r5, sp
  7c:	00000da5 	andeq	r0, r0, r5, lsr #27
  80:	00000db5 			; <UNDEFINED> instruction: 0x00000db5
  84:	00000dc5 	andeq	r0, r0, r5, asr #27
  88:	00000dd5 	ldrdeq	r0, [r0], -r5
  8c:	00000de5 	andeq	r0, r0, r5, ror #27
  90:	00000df5 	strdeq	r0, [r0], -r5
  94:	00000e05 	andeq	r0, r0, r5, lsl #28
  98:	00000e15 	andeq	r0, r0, r5, lsl lr
  9c:	00000e25 	andeq	r0, r0, r5, lsr #28
  a0:	00000e35 	andeq	r0, r0, r5, lsr lr
  a4:	00000e45 	andeq	r0, r0, r5, asr #28
  a8:	00000e55 	andeq	r0, r0, r5, asr lr
  ac:	00000e65 	andeq	r0, r0, r5, ror #28
  b0:	00000e75 	andeq	r0, r0, r5, ror lr
  b4:	00000e85 	andeq	r0, r0, r5, lsl #29
  b8:	00000e95 	muleq	r0, r5, lr
  bc:	00000ea5 	andeq	r0, r0, r5, lsr #29
  c0:	00000eb5 			; <UNDEFINED> instruction: 0x00000eb5
  c4:	00000ec9 	andeq	r0, r0, r9, asr #29
  c8:	00000edd 	ldrdeq	r0, [r0], -sp
  cc:	00000ef1 	strdeq	r0, [r0], -r1
  d0:	00000f05 	andeq	r0, r0, r5, lsl #30
  d4:	00000f19 	andeq	r0, r0, r9, lsl pc
  d8:	00000f2d 	andeq	r0, r0, sp, lsr #30
  dc:	00000f41 	andeq	r0, r0, r1, asr #30
  e0:	00000f55 	andeq	r0, r0, r5, asr pc
  e4:	00000f69 	andeq	r0, r0, r9, ror #30
  e8:	00000f7d 	andeq	r0, r0, sp, ror pc
  ec:	00000f91 	muleq	r0, r1, pc	; <UNPREDICTABLE>
  f0:	00000fa5 	andeq	r0, r0, r5, lsr #31
  f4:	00000fb9 			; <UNDEFINED> instruction: 0x00000fb9
  f8:	00000fcd 	andeq	r0, r0, sp, asr #31
  fc:	00000fe1 	andeq	r0, r0, r1, ror #31
 100:	00000ff5 	strdeq	r0, [r0], -r5
 104:	00001009 	andeq	r1, r0, r9
 108:	0000101d 	andeq	r1, r0, sp, lsl r0
 10c:	00001031 	andeq	r1, r0, r1, lsr r0
 110:	00001045 	andeq	r1, r0, r5, asr #32
 114:	00001059 	andeq	r1, r0, r9, asr r0
 118:	0000106d 	andeq	r1, r0, sp, rrx
 11c:	00001081 	andeq	r1, r0, r1, lsl #1
 120:	00001095 	muleq	r0, r5, r0
 124:	000010a9 	andeq	r1, r0, r9, lsr #1
 128:	000010bd 	strheq	r1, [r0], -sp
 12c:	000010d1 	ldrdeq	r1, [r0], -r1	; <UNPREDICTABLE>
 130:	000010e5 	andeq	r1, r0, r5, ror #1
 134:	000010f9 	strdeq	r1, [r0], -r9
 138:	0000110d 	andeq	r1, r0, sp, lsl #2
 13c:	00001121 	andeq	r1, r0, r1, lsr #2
 140:	00001135 	andeq	r1, r0, r5, lsr r1
 144:	00001149 	andeq	r1, r0, r9, asr #2
 148:	0000115d 	andeq	r1, r0, sp, asr r1
 14c:	00001171 	andeq	r1, r0, r1, ror r1
 150:	00001185 	andeq	r1, r0, r5, lsl #3
 154:	00001199 	muleq	r0, r9, r1
 158:	000011ad 	andeq	r1, r0, sp, lsr #3
 15c:	000011c1 	andeq	r1, r0, r1, asr #3
 160:	000011d5 	ldrdeq	r1, [r0], -r5
 164:	000011e9 	andeq	r1, r0, r9, ror #3
 168:	000011fd 	strdeq	r1, [r0], -sp
 16c:	00001211 	andeq	r1, r0, r1, lsl r2
 170:	00001225 	andeq	r1, r0, r5, lsr #4
 174:	00001239 	andeq	r1, r0, r9, lsr r2
 178:	0000124d 	andeq	r1, r0, sp, asr #4
 17c:	00001261 	andeq	r1, r0, r1, ror #4
 180:	00001275 	andeq	r1, r0, r5, ror r2
 184:	00001289 	andeq	r1, r0, r9, lsl #5
 188:	0000129d 	muleq	r0, sp, r2
 18c:	000012b1 			; <UNDEFINED> instruction: 0x000012b1
 190:	000012c5 	andeq	r1, r0, r5, asr #5
 194:	000012d9 	ldrdeq	r1, [r0], -r9
 198:	000012ed 	andeq	r1, r0, sp, ror #5
 19c:	00001301 	andeq	r1, r0, r1, lsl #6
 1a0:	00001315 	andeq	r1, r0, r5, lsl r3
 1a4:	00001329 	andeq	r1, r0, r9, lsr #6
 1a8:	0000133d 	andeq	r1, r0, sp, lsr r3
 1ac:	00001351 	andeq	r1, r0, r1, asr r3
 1b0:	00001365 	andeq	r1, r0, r5, ror #6
 1b4:	00001379 	andeq	r1, r0, r9, ror r3
 1b8:	0000138d 	andeq	r1, r0, sp, lsl #7
 1bc:	000013a1 	andeq	r1, r0, r1, lsr #7
 1c0:	000013b5 			; <UNDEFINED> instruction: 0x000013b5
 1c4:	000013c9 	andeq	r1, r0, r9, asr #7
 1c8:	000013dd 	ldrdeq	r1, [r0], -sp
 1cc:	000013f1 	strdeq	r1, [r0], -r1	; <UNPREDICTABLE>
 1d0:	00001405 	andeq	r1, r0, r5, lsl #8
 1d4:	00001419 	andeq	r1, r0, r9, lsl r4
 1d8:	0000142d 	andeq	r1, r0, sp, lsr #8
 1dc:	00001441 	andeq	r1, r0, r1, asr #8
 1e0:	00001455 	andeq	r1, r0, r5, asr r4
 1e4:	00001469 	andeq	r1, r0, r9, ror #8
 1e8:	0000147d 	andeq	r1, r0, sp, ror r4
 1ec:	00001491 	muleq	r0, r1, r4
 1f0:	000014a5 	andeq	r1, r0, r5, lsr #9
 1f4:	000014b9 			; <UNDEFINED> instruction: 0x000014b9
 1f8:	000014cd 	andeq	r1, r0, sp, asr #9
 1fc:	000014e1 	andeq	r1, r0, r1, ror #9
 200:	000014f5 	strdeq	r1, [r0], -r5
 204:	00001509 	andeq	r1, r0, r9, lsl #10
 208:	0000151d 	andeq	r1, r0, sp, lsl r5
 20c:	00001531 	andeq	r1, r0, r1, lsr r5
 210:	00001545 	andeq	r1, r0, r5, asr #10
 214:	00001559 	andeq	r1, r0, r9, asr r5
 218:	0000156d 	andeq	r1, r0, sp, ror #10
 21c:	00001581 	andeq	r1, r0, r1, lsl #11
 220:	00001595 	muleq	r0, r5, r5
 224:	000015a9 	andeq	r1, r0, r9, lsr #11
 228:	000015bd 			; <UNDEFINED> instruction: 0x000015bd
 22c:	000015d1 	ldrdeq	r1, [r0], -r1	; <UNPREDICTABLE>
 230:	000015e5 	andeq	r1, r0, r5, ror #11
 234:	000015f9 	strdeq	r1, [r0], -r9
 238:	0000160d 	andeq	r1, r0, sp, lsl #12
 23c:	00001621 	andeq	r1, r0, r1, lsr #12
 240:	00001635 	andeq	r1, r0, r5, lsr r6
 244:	000017c5 	andeq	r1, r0, r5, asr #15
 248:	00001b43 	andeq	r1, r0, r3, asr #22
 24c:	00001c39 	andeq	r1, r0, r9, lsr ip
 250:	00001fbd 			; <UNDEFINED> instruction: 0x00001fbd
 254:	00003880 	andeq	r3, r0, r0, lsl #17
 258:	00003880 	andeq	r3, r0, r0, lsl #17
 25c:	00003880 	andeq	r3, r0, r0, lsl #17
 260:	0000214d 	andeq	r2, r0, sp, asr #2
 264:	00002485 	andeq	r2, r0, r5, lsl #9
 268:	00002721 	andeq	r2, r0, r1, lsr #14
 26c:	00002955 	andeq	r2, r0, r5, asr r9
 270:	00002a6d 	andeq	r2, r0, sp, ror #20
 274:	00002c9d 	muleq	r0, sp, ip
 278:	00002f31 	andeq	r2, r0, r1, lsr pc
 27c:	00003071 	andeq	r3, r0, r1, ror r0

Disassembly of section .icg_sec:

00000400 <u32ICG>:

/*******************************************************************************
 * Local variable definitions ('static')
 ******************************************************************************/
#if defined ( __GNUC__ ) && !defined (__CC_ARM) /* GNU Compiler */
const uint32_t u32ICG[] __attribute__((section(".icg_sec"))) =
 400:	ffffffff 			; <UNDEFINED> instruction: 0xffffffff
 404:	ffffffff 			; <UNDEFINED> instruction: 0xffffffff
 408:	ffffffff 			; <UNDEFINED> instruction: 0xffffffff
 40c:	ffffffff 			; <UNDEFINED> instruction: 0xffffffff
 410:	ffffffff 			; <UNDEFINED> instruction: 0xffffffff
 414:	ffffffff 			; <UNDEFINED> instruction: 0xffffffff
 418:	ffffffff 			; <UNDEFINED> instruction: 0xffffffff
 41c:	ffffffff 			; <UNDEFINED> instruction: 0xffffffff

Disassembly of section .text:

00000420 <SystemCoreClockUpdate>:
void SystemCoreClockUpdate(void)  // Update SystemCoreClock variable
{
    uint8_t tmp = 0u;
    uint32_t plln = 19u, pllp = 1u, pllm = 0u, pllsource = 0u;

    tmp = M4_SYSREG->CMU_CKSWR_f.CKSW;
     420:	4b25      	ldr	r3, [pc, #148]	; (4b8 <SystemCoreClockUpdate+0x98>)
     422:	f893 3026 	ldrb.w	r3, [r3, #38]	; 0x26
     426:	f003 0307 	and.w	r3, r3, #7
    switch (tmp)
     42a:	2b05      	cmp	r3, #5
     42c:	d842      	bhi.n	4b4 <SystemCoreClockUpdate+0x94>
     42e:	e8df f003 	tbb	[pc, r3]
     432:	100b0703 	andne	r0, fp, r3, lsl #14
     436:	4b201914 	blmi	80688e <__ram_ret_data_start+0x802ffe>
    {
        case 0x00:  /* use internal high speed RC */
            SystemCoreClock = HRC_VALUE;
     43a:	4a21      	ldr	r2, [pc, #132]	; (4c0 <SystemCoreClockUpdate+0xa0>)
     43c:	601a      	str	r2, [r3, #0]
            break;
     43e:	4770      	bx	lr
        case 0x01:  /* use internal middle speed RC */
            SystemCoreClock = MRC_VALUE;
     440:	4b1e      	ldr	r3, [pc, #120]	; (4bc <SystemCoreClockUpdate+0x9c>)
     442:	4a20      	ldr	r2, [pc, #128]	; (4c4 <SystemCoreClockUpdate+0xa4>)
     444:	601a      	str	r2, [r3, #0]
            break;
     446:	4770      	bx	lr
        case 0x02:  /* use internal low speed RC */
            SystemCoreClock = LRC_VALUE;
     448:	4b1c      	ldr	r3, [pc, #112]	; (4bc <SystemCoreClockUpdate+0x9c>)
     44a:	f44f 4200 	mov.w	r2, #32768	; 0x8000
     44e:	601a      	str	r2, [r3, #0]
            break;
     450:	4770      	bx	lr
        case 0x03:  /* use external high speed RC */
            SystemCoreClock = XTAL_VALUE;
     452:	4b1a      	ldr	r3, [pc, #104]	; (4bc <SystemCoreClockUpdate+0x9c>)
     454:	4a1b      	ldr	r2, [pc, #108]	; (4c4 <SystemCoreClockUpdate+0xa4>)
     456:	601a      	str	r2, [r3, #0]
            break;
     458:	4770      	bx	lr
        case 0x04:  /* use external low speed RC */
            SystemCoreClock = XTAL32_VALUE;
     45a:	4b18      	ldr	r3, [pc, #96]	; (4bc <SystemCoreClockUpdate+0x9c>)
     45c:	f44f 4200 	mov.w	r2, #32768	; 0x8000
     460:	601a      	str	r2, [r3, #0]
            break;
     462:	4770      	bx	lr
        case 0x05:  /* use MPLL */
            /* PLLCLK = ((pllsrc / pllm) * plln) / pllp */
            pllsource = M4_SYSREG->CMU_PLLCFGR_f.PLLSRC;
     464:	4a14      	ldr	r2, [pc, #80]	; (4b8 <SystemCoreClockUpdate+0x98>)
     466:	f8d2 1100 	ldr.w	r1, [r2, #256]	; 0x100
            plln = M4_SYSREG->CMU_PLLCFGR_f.MPLLN;
     46a:	f8d2 0100 	ldr.w	r0, [r2, #256]	; 0x100
     46e:	f3c0 2008 	ubfx	r0, r0, #8, #9
            pllp = M4_SYSREG->CMU_PLLCFGR_f.MPLLP;
     472:	f8d2 3100 	ldr.w	r3, [r2, #256]	; 0x100
     476:	0f1b      	lsrs	r3, r3, #28
            pllm = M4_SYSREG->CMU_PLLCFGR_f.MPLLM;
     478:	f8d2 2100 	ldr.w	r2, [r2, #256]	; 0x100
     47c:	f002 021f 	and.w	r2, r2, #31
            /* use exteranl high speed OSC as PLL source */
            if (0ul == pllsource)
     480:	f011 0f80 	tst.w	r1, #128	; 0x80
     484:	d10b      	bne.n	49e <SystemCoreClockUpdate+0x7e>
            {
                SystemCoreClock = (XTAL_VALUE) / (pllm + 1ul) * (plln + 1ul) / (pllp + 1ul);
     486:	3201      	adds	r2, #1
     488:	490e      	ldr	r1, [pc, #56]	; (4c4 <SystemCoreClockUpdate+0xa4>)
     48a:	fbb1 f2f2 	udiv	r2, r1, r2
     48e:	fb00 2202 	mla	r2, r0, r2, r2
     492:	3301      	adds	r3, #1
     494:	fbb2 f3f3 	udiv	r3, r2, r3
     498:	4a08      	ldr	r2, [pc, #32]	; (4bc <SystemCoreClockUpdate+0x9c>)
     49a:	6013      	str	r3, [r2, #0]
     49c:	4770      	bx	lr
            }
            /* use interanl high RC as PLL source */
            else if (1ul == pllsource)
            {
                SystemCoreClock = (HRC_VALUE) / (pllm + 1ul) * (plln + 1ul) / (pllp + 1ul);
     49e:	3201      	adds	r2, #1
     4a0:	4907      	ldr	r1, [pc, #28]	; (4c0 <SystemCoreClockUpdate+0xa0>)
     4a2:	fbb1 f2f2 	udiv	r2, r1, r2
     4a6:	fb00 2202 	mla	r2, r0, r2, r2
     4aa:	3301      	adds	r3, #1
     4ac:	fbb2 f3f3 	udiv	r3, r2, r3
     4b0:	4a02      	ldr	r2, [pc, #8]	; (4bc <SystemCoreClockUpdate+0x9c>)
     4b2:	6013      	str	r3, [r2, #0]
            {
                /* Reserved */
            }
            break;
    }
}
     4b4:	4770      	bx	lr
     4b6:	bf00      	nop
     4b8:	40054000 	andmi	r4, r5, r0
     4bc:	1fff8000 	svcne	0x00ff8000
     4c0:	00f42400 	rscseq	r2, r4, r0, lsl #8
     4c4:	007a1200 	rsbseq	r1, sl, r0, lsl #4

000004c8 <SystemInit>:
{
     4c8:	b508      	push	{r3, lr}
    SystemCoreClockUpdate();
     4ca:	f7ff ffa9 	bl	420 <SystemCoreClockUpdate>
}
     4ce:	bd08      	pop	{r3, pc}

000004d0 <enNvicBackup>:
 **
 ** retval Ok                           Ok, Backup and disable sucessfully.
 **
 *****************************************************************************/
en_result_t enNvicBackup(void)
{
     4d0:	e92d 4ff0 	stmdb	sp!, {r4, r5, r6, r7, r8, r9, sl, fp, lr}
    en_result_t enRet = Ok;

    /* Backup NVIC set enable register for IRQ0~143*/
    for (u8Cnt = 0u; u8Cnt < 5u; u8Cnt++)
    {
        NVIC_ISER_BAK[u8Cnt] = NVIC->ISER[u8Cnt];
     4d4:	4aca      	ldr	r2, [pc, #808]	; (800 <enNvicBackup+0x330>)
     4d6:	6811      	ldr	r1, [r2, #0]
     4d8:	4bca      	ldr	r3, [pc, #808]	; (804 <enNvicBackup+0x334>)
     4da:	6019      	str	r1, [r3, #0]
     4dc:	6851      	ldr	r1, [r2, #4]
     4de:	6059      	str	r1, [r3, #4]
     4e0:	6891      	ldr	r1, [r2, #8]
     4e2:	6099      	str	r1, [r3, #8]
     4e4:	68d1      	ldr	r1, [r2, #12]
     4e6:	60d9      	str	r1, [r3, #12]
     4e8:	6912      	ldr	r2, [r2, #16]
     4ea:	611a      	str	r2, [r3, #16]
     4ec:	2200      	movs	r2, #0
 */
__STATIC_INLINE void __NVIC_DisableIRQ(IRQn_Type IRQn)
{
  if ((int32_t)(IRQn) >= 0)
  {
    NVIC->ICER[(((uint32_t)IRQn) >> 5UL)] = (uint32_t)(1UL << (((uint32_t)IRQn) & 0x1FUL));
     4ee:	2401      	movs	r4, #1
     4f0:	48c3      	ldr	r0, [pc, #780]	; (800 <enNvicBackup+0x330>)
     4f2:	f102 0380 	add.w	r3, r2, #128	; 0x80
     4f6:	095b      	lsrs	r3, r3, #5
     4f8:	fa04 f102 	lsl.w	r1, r4, r2
     4fc:	3320      	adds	r3, #32
     4fe:	f840 1023 	str.w	r1, [r0, r3, lsl #2]
  \details Acts as a special kind of Data Memory Barrier.
           It completes when all explicit memory accesses before this instruction complete.
 */
__STATIC_FORCEINLINE void __DSB(void)
{
  __ASM volatile ("dsb 0xF":::"memory");
     502:	f3bf 8f4f 	dsb	sy
  __ASM volatile ("isb 0xF":::"memory");
     506:	f3bf 8f6f 	isb	sy
     50a:	3201      	adds	r2, #1
    }

    /* Disable share vector */
    for (u8Cnt = 128u; u8Cnt < 144u; u8Cnt++)
     50c:	2a10      	cmp	r2, #16
     50e:	d1f0      	bne.n	4f2 <enNvicBackup+0x22>
     510:	2200      	movs	r2, #0
        NVIC_DisableIRQ((IRQn_Type)u8Cnt);
    }

    for (u8Cnt = 0u; u8Cnt < 128u; u8Cnt++)
    {
        stcIntSel = (stc_intc_sel_field_t *)((uint32_t)(&M4_INTC->SEL0) + (4ul * u8Cnt));
     512:	48bd      	ldr	r0, [pc, #756]	; (808 <enNvicBackup+0x338>)
                    {
                        NVIC_DisableIRQ((IRQn_Type)u8Cnt);
                    }
                    break;
                case INT_PORT_EIRQ12:
                    if (Reset == bM4_INTC_WUPEN_EIRQWUEN12)
     514:	f8df 9324 	ldr.w	r9, [pc, #804]	; 83c <enNvicBackup+0x36c>
                    if (Reset == bM4_INTC_WUPEN_RTCPRDWUEN)
     518:	f8df 8324 	ldr.w	r8, [pc, #804]	; 840 <enNvicBackup+0x370>
                    if (Reset == bM4_INTC_WUPEN_CMPI0WUEN)
     51c:	f8df e324 	ldr.w	lr, [pc, #804]	; 844 <enNvicBackup+0x374>
                    if (Reset == bM4_INTC_WUPEN_PVD1WUEN)
     520:	f8df c324 	ldr.w	ip, [pc, #804]	; 848 <enNvicBackup+0x378>
                    if (Reset == bM4_INTC_WUPEN_PVD2WUEN)
     524:	4fb9      	ldr	r7, [pc, #740]	; (80c <enNvicBackup+0x33c>)
                    if (Reset == bM4_INTC_WUPEN_SCIWEN)
     526:	4eba      	ldr	r6, [pc, #744]	; (810 <enNvicBackup+0x340>)
                    if (Reset == bM4_INTC_WUPEN_WKTMWUEN)
     528:	4dba      	ldr	r5, [pc, #744]	; (814 <enNvicBackup+0x344>)
                    if (Reset == bM4_INTC_WUPEN_SWDTWUEN)
     52a:	4cbb      	ldr	r4, [pc, #748]	; (818 <enNvicBackup+0x348>)
     52c:	e069      	b.n	602 <enNvicBackup+0x132>
            switch (stcIntSel->INTSEL)
     52e:	2b02      	cmp	r3, #2
     530:	f000 81ca 	beq.w	8c8 <enNvicBackup+0x3f8>
     534:	d918      	bls.n	568 <enNvicBackup+0x98>
     536:	2b03      	cmp	r3, #3
     538:	f000 81db 	beq.w	8f2 <enNvicBackup+0x422>
     53c:	2b04      	cmp	r3, #4
     53e:	d15b      	bne.n	5f8 <enNvicBackup+0x128>
                    if (Reset == bM4_INTC_WUPEN_EIRQWUEN4)
     540:	4bb6      	ldr	r3, [pc, #728]	; (81c <enNvicBackup+0x34c>)
     542:	681b      	ldr	r3, [r3, #0]
     544:	2b00      	cmp	r3, #0
     546:	d157      	bne.n	5f8 <enNvicBackup+0x128>
     548:	094b      	lsrs	r3, r1, #5
     54a:	f001 0a1f 	and.w	sl, r1, #31
     54e:	2101      	movs	r1, #1
     550:	fa01 f10a 	lsl.w	r1, r1, sl
     554:	3320      	adds	r3, #32
     556:	f8df a2a8 	ldr.w	sl, [pc, #680]	; 800 <enNvicBackup+0x330>
     55a:	f84a 1023 	str.w	r1, [sl, r3, lsl #2]
  __ASM volatile ("dsb 0xF":::"memory");
     55e:	f3bf 8f4f 	dsb	sy
  __ASM volatile ("isb 0xF":::"memory");
     562:	f3bf 8f6f 	isb	sy
     566:	e047      	b.n	5f8 <enNvicBackup+0x128>
            switch (stcIntSel->INTSEL)
     568:	2b00      	cmp	r3, #0
     56a:	f000 8198 	beq.w	89e <enNvicBackup+0x3ce>
     56e:	2b01      	cmp	r3, #1
     570:	d142      	bne.n	5f8 <enNvicBackup+0x128>
                    if (Reset == bM4_INTC_WUPEN_EIRQWUEN1)
     572:	4bab      	ldr	r3, [pc, #684]	; (820 <enNvicBackup+0x350>)
     574:	681b      	ldr	r3, [r3, #0]
     576:	2b00      	cmp	r3, #0
     578:	d13e      	bne.n	5f8 <enNvicBackup+0x128>
     57a:	094b      	lsrs	r3, r1, #5
     57c:	f001 0a1f 	and.w	sl, r1, #31
     580:	2101      	movs	r1, #1
     582:	fa01 f10a 	lsl.w	r1, r1, sl
     586:	3320      	adds	r3, #32
     588:	f8df a274 	ldr.w	sl, [pc, #628]	; 800 <enNvicBackup+0x330>
     58c:	f84a 1023 	str.w	r1, [sl, r3, lsl #2]
  __ASM volatile ("dsb 0xF":::"memory");
     590:	f3bf 8f4f 	dsb	sy
  __ASM volatile ("isb 0xF":::"memory");
     594:	f3bf 8f6f 	isb	sy
     598:	e02e      	b.n	5f8 <enNvicBackup+0x128>
            switch (stcIntSel->INTSEL)
     59a:	2b06      	cmp	r3, #6
     59c:	f000 81d3 	beq.w	946 <enNvicBackup+0x476>
     5a0:	2b07      	cmp	r3, #7
     5a2:	d129      	bne.n	5f8 <enNvicBackup+0x128>
                    if (Reset == bM4_INTC_WUPEN_EIRQWUEN7)
     5a4:	4b9f      	ldr	r3, [pc, #636]	; (824 <enNvicBackup+0x354>)
     5a6:	681b      	ldr	r3, [r3, #0]
     5a8:	bb33      	cbnz	r3, 5f8 <enNvicBackup+0x128>
     5aa:	094b      	lsrs	r3, r1, #5
     5ac:	f001 0a1f 	and.w	sl, r1, #31
     5b0:	2101      	movs	r1, #1
     5b2:	fa01 f10a 	lsl.w	r1, r1, sl
     5b6:	3320      	adds	r3, #32
     5b8:	f8df a244 	ldr.w	sl, [pc, #580]	; 800 <enNvicBackup+0x330>
     5bc:	f84a 1023 	str.w	r1, [sl, r3, lsl #2]
  __ASM volatile ("dsb 0xF":::"memory");
     5c0:	f3bf 8f4f 	dsb	sy
  __ASM volatile ("isb 0xF":::"memory");
     5c4:	f3bf 8f6f 	isb	sy
     5c8:	e016      	b.n	5f8 <enNvicBackup+0x128>
            switch (stcIntSel->INTSEL)
     5ca:	2b52      	cmp	r3, #82	; 0x52
     5cc:	f000 80d9 	beq.w	782 <enNvicBackup+0x2b2>
     5d0:	d960      	bls.n	694 <enNvicBackup+0x1c4>
     5d2:	f5b3 7fd0 	cmp.w	r3, #416	; 0x1a0
     5d6:	f000 80fd 	beq.w	7d4 <enNvicBackup+0x304>
     5da:	f240 8090 	bls.w	6fe <enNvicBackup+0x22e>
     5de:	f240 1ab1 	movw	sl, #433	; 0x1b1
     5e2:	4553      	cmp	r3, sl
     5e4:	f000 8132 	beq.w	84c <enNvicBackup+0x37c>
     5e8:	f5b3 7fd9 	cmp.w	r3, #434	; 0x1b2
     5ec:	f000 8143 	beq.w	876 <enNvicBackup+0x3a6>
     5f0:	f5b3 7fd8 	cmp.w	r3, #432	; 0x1b0
     5f4:	f000 809c 	beq.w	730 <enNvicBackup+0x260>
     5f8:	3201      	adds	r2, #1
    for (u8Cnt = 0u; u8Cnt < 128u; u8Cnt++)
     5fa:	f012 0f80 	tst.w	r2, #128	; 0x80
     5fe:	f040 8235 	bne.w	a6c <enNvicBackup+0x59c>
     602:	b2d1      	uxtb	r1, r2
        stcIntSel = (stc_intc_sel_field_t *)((uint32_t)(&M4_INTC->SEL0) + (4ul * u8Cnt));
     604:	eb01 0a00 	add.w	sl, r1, r0
     608:	ea4f 0a8a 	mov.w	sl, sl, lsl #2
        u32WakeupSrc = stcIntSel->INTSEL;
     60c:	f8da 3000 	ldr.w	r3, [sl]
     610:	f3c3 0308 	ubfx	r3, r3, #0, #9
        if (IS_VALID_WKUP_SRC(u32WakeupSrc))
     614:	f103 0b50 	add.w	fp, r3, #80	; 0x50
     618:	f3cb 0b08 	ubfx	fp, fp, #0, #9
     61c:	f1bb 0f02 	cmp.w	fp, #2
     620:	d90e      	bls.n	640 <enNvicBackup+0x170>
     622:	f503 7be0 	add.w	fp, r3, #448	; 0x1c0
     626:	f3cb 0b08 	ubfx	fp, fp, #0, #9
     62a:	f1bb 0f17 	cmp.w	fp, #23
     62e:	f200 8222 	bhi.w	a76 <enNvicBackup+0x5a6>
     632:	4b7d      	ldr	r3, [pc, #500]	; (828 <enNvicBackup+0x358>)
     634:	fa23 fb0b 	lsr.w	fp, r3, fp
     638:	f01b 0f01 	tst.w	fp, #1
     63c:	f000 8222 	beq.w	a84 <enNvicBackup+0x5b4>
            switch (stcIntSel->INTSEL)
     640:	f8da 3000 	ldr.w	r3, [sl]
     644:	f3c3 0308 	ubfx	r3, r3, #0, #9
     648:	2b0c      	cmp	r3, #12
     64a:	f000 81d0 	beq.w	9ee <enNvicBackup+0x51e>
     64e:	d8bc      	bhi.n	5ca <enNvicBackup+0xfa>
     650:	2b05      	cmp	r3, #5
     652:	f000 8163 	beq.w	91c <enNvicBackup+0x44c>
     656:	f67f af6a 	bls.w	52e <enNvicBackup+0x5e>
     65a:	2b08      	cmp	r3, #8
     65c:	f000 8188 	beq.w	970 <enNvicBackup+0x4a0>
     660:	d99b      	bls.n	59a <enNvicBackup+0xca>
     662:	2b0a      	cmp	r3, #10
     664:	f000 8199 	beq.w	99a <enNvicBackup+0x4ca>
     668:	f200 81ac 	bhi.w	9c4 <enNvicBackup+0x4f4>
                    if (Reset == bM4_INTC_WUPEN_EIRQWUEN9)
     66c:	4b6f      	ldr	r3, [pc, #444]	; (82c <enNvicBackup+0x35c>)
     66e:	681b      	ldr	r3, [r3, #0]
     670:	2b00      	cmp	r3, #0
     672:	d1c1      	bne.n	5f8 <enNvicBackup+0x128>
     674:	094b      	lsrs	r3, r1, #5
     676:	f001 0a1f 	and.w	sl, r1, #31
     67a:	2101      	movs	r1, #1
     67c:	fa01 f10a 	lsl.w	r1, r1, sl
     680:	3320      	adds	r3, #32
     682:	f8df a17c 	ldr.w	sl, [pc, #380]	; 800 <enNvicBackup+0x330>
     686:	f84a 1023 	str.w	r1, [sl, r3, lsl #2]
  __ASM volatile ("dsb 0xF":::"memory");
     68a:	f3bf 8f4f 	dsb	sy
  __ASM volatile ("isb 0xF":::"memory");
     68e:	f3bf 8f6f 	isb	sy
     692:	e7b1      	b.n	5f8 <enNvicBackup+0x128>
            switch (stcIntSel->INTSEL)
     694:	2b0f      	cmp	r3, #15
     696:	f000 81d4 	beq.w	a42 <enNvicBackup+0x572>
     69a:	d917      	bls.n	6cc <enNvicBackup+0x1fc>
     69c:	2b40      	cmp	r3, #64	; 0x40
     69e:	d05b      	beq.n	758 <enNvicBackup+0x288>
     6a0:	2b51      	cmp	r3, #81	; 0x51
     6a2:	d1a9      	bne.n	5f8 <enNvicBackup+0x128>
                    if (Reset == bM4_INTC_WUPEN_RTCALMWUEN)
     6a4:	4b62      	ldr	r3, [pc, #392]	; (830 <enNvicBackup+0x360>)
     6a6:	681b      	ldr	r3, [r3, #0]
     6a8:	2b00      	cmp	r3, #0
     6aa:	d1a5      	bne.n	5f8 <enNvicBackup+0x128>
     6ac:	094b      	lsrs	r3, r1, #5
     6ae:	f001 0a1f 	and.w	sl, r1, #31
     6b2:	2101      	movs	r1, #1
     6b4:	fa01 f10a 	lsl.w	r1, r1, sl
     6b8:	3320      	adds	r3, #32
     6ba:	f8df a144 	ldr.w	sl, [pc, #324]	; 800 <enNvicBackup+0x330>
     6be:	f84a 1023 	str.w	r1, [sl, r3, lsl #2]
  __ASM volatile ("dsb 0xF":::"memory");
     6c2:	f3bf 8f4f 	dsb	sy
  __ASM volatile ("isb 0xF":::"memory");
     6c6:	f3bf 8f6f 	isb	sy
     6ca:	e795      	b.n	5f8 <enNvicBackup+0x128>
            switch (stcIntSel->INTSEL)
     6cc:	2b0d      	cmp	r3, #13
     6ce:	f000 81a3 	beq.w	a18 <enNvicBackup+0x548>
     6d2:	2b0e      	cmp	r3, #14
     6d4:	d190      	bne.n	5f8 <enNvicBackup+0x128>
                    {
                        NVIC_DisableIRQ((IRQn_Type)u8Cnt);
                    }
                    break;
                case INT_PORT_EIRQ14:
                    if (Reset == bM4_INTC_WUPEN_EIRQWUEN14)
     6d6:	4b57      	ldr	r3, [pc, #348]	; (834 <enNvicBackup+0x364>)
     6d8:	681b      	ldr	r3, [r3, #0]
     6da:	2b00      	cmp	r3, #0
     6dc:	d18c      	bne.n	5f8 <enNvicBackup+0x128>
     6de:	094b      	lsrs	r3, r1, #5
     6e0:	f001 0a1f 	and.w	sl, r1, #31
     6e4:	2101      	movs	r1, #1
     6e6:	fa01 f10a 	lsl.w	r1, r1, sl
     6ea:	3320      	adds	r3, #32
     6ec:	f8df a110 	ldr.w	sl, [pc, #272]	; 800 <enNvicBackup+0x330>
     6f0:	f84a 1023 	str.w	r1, [sl, r3, lsl #2]
  __ASM volatile ("dsb 0xF":::"memory");
     6f4:	f3bf 8f4f 	dsb	sy
  __ASM volatile ("isb 0xF":::"memory");
     6f8:	f3bf 8f6f 	isb	sy
     6fc:	e77c      	b.n	5f8 <enNvicBackup+0x128>
            switch (stcIntSel->INTSEL)
     6fe:	2b56      	cmp	r3, #86	; 0x56
     700:	d054      	beq.n	7ac <enNvicBackup+0x2dc>
     702:	2b57      	cmp	r3, #87	; 0x57
     704:	f47f af78 	bne.w	5f8 <enNvicBackup+0x128>
                    if (Reset == bM4_INTC_WUPEN_SWDTWUEN)
     708:	6823      	ldr	r3, [r4, #0]
     70a:	2b00      	cmp	r3, #0
     70c:	f47f af74 	bne.w	5f8 <enNvicBackup+0x128>
     710:	094b      	lsrs	r3, r1, #5
     712:	f001 0a1f 	and.w	sl, r1, #31
     716:	2101      	movs	r1, #1
     718:	fa01 f10a 	lsl.w	r1, r1, sl
     71c:	3320      	adds	r3, #32
     71e:	f8df a0e0 	ldr.w	sl, [pc, #224]	; 800 <enNvicBackup+0x330>
     722:	f84a 1023 	str.w	r1, [sl, r3, lsl #2]
  __ASM volatile ("dsb 0xF":::"memory");
     726:	f3bf 8f4f 	dsb	sy
  __ASM volatile ("isb 0xF":::"memory");
     72a:	f3bf 8f6f 	isb	sy
     72e:	e763      	b.n	5f8 <enNvicBackup+0x128>
                    if (Reset == bM4_INTC_WUPEN_SCIWEN)
     730:	6833      	ldr	r3, [r6, #0]
     732:	2b00      	cmp	r3, #0
     734:	f47f af60 	bne.w	5f8 <enNvicBackup+0x128>
     738:	094b      	lsrs	r3, r1, #5
     73a:	f001 0a1f 	and.w	sl, r1, #31
     73e:	2101      	movs	r1, #1
     740:	fa01 f10a 	lsl.w	r1, r1, sl
     744:	3320      	adds	r3, #32
     746:	f8df a0b8 	ldr.w	sl, [pc, #184]	; 800 <enNvicBackup+0x330>
     74a:	f84a 1023 	str.w	r1, [sl, r3, lsl #2]
  __ASM volatile ("dsb 0xF":::"memory");
     74e:	f3bf 8f4f 	dsb	sy
  __ASM volatile ("isb 0xF":::"memory");
     752:	f3bf 8f6f 	isb	sy
     756:	e74f      	b.n	5f8 <enNvicBackup+0x128>
                    if (Reset == bM4_INTC_WUPEN_TMR0WUEN)
     758:	4b37      	ldr	r3, [pc, #220]	; (838 <enNvicBackup+0x368>)
     75a:	681b      	ldr	r3, [r3, #0]
     75c:	2b00      	cmp	r3, #0
     75e:	f47f af4b 	bne.w	5f8 <enNvicBackup+0x128>
     762:	094b      	lsrs	r3, r1, #5
     764:	f001 0a1f 	and.w	sl, r1, #31
     768:	2101      	movs	r1, #1
     76a:	fa01 f10a 	lsl.w	r1, r1, sl
     76e:	3320      	adds	r3, #32
     770:	f8df a08c 	ldr.w	sl, [pc, #140]	; 800 <enNvicBackup+0x330>
     774:	f84a 1023 	str.w	r1, [sl, r3, lsl #2]
  __ASM volatile ("dsb 0xF":::"memory");
     778:	f3bf 8f4f 	dsb	sy
  __ASM volatile ("isb 0xF":::"memory");
     77c:	f3bf 8f6f 	isb	sy
     780:	e73a      	b.n	5f8 <enNvicBackup+0x128>
                    if (Reset == bM4_INTC_WUPEN_RTCPRDWUEN)
     782:	f8d8 3000 	ldr.w	r3, [r8]
     786:	2b00      	cmp	r3, #0
     788:	f47f af36 	bne.w	5f8 <enNvicBackup+0x128>
     78c:	094b      	lsrs	r3, r1, #5
     78e:	f001 0a1f 	and.w	sl, r1, #31
     792:	2101      	movs	r1, #1
     794:	fa01 f10a 	lsl.w	r1, r1, sl
     798:	3320      	adds	r3, #32
     79a:	f8df a064 	ldr.w	sl, [pc, #100]	; 800 <enNvicBackup+0x330>
     79e:	f84a 1023 	str.w	r1, [sl, r3, lsl #2]
  __ASM volatile ("dsb 0xF":::"memory");
     7a2:	f3bf 8f4f 	dsb	sy
  __ASM volatile ("isb 0xF":::"memory");
     7a6:	f3bf 8f6f 	isb	sy
     7aa:	e725      	b.n	5f8 <enNvicBackup+0x128>
                    if (Reset == bM4_INTC_WUPEN_WKTMWUEN)
     7ac:	682b      	ldr	r3, [r5, #0]
     7ae:	2b00      	cmp	r3, #0
     7b0:	f47f af22 	bne.w	5f8 <enNvicBackup+0x128>
     7b4:	094b      	lsrs	r3, r1, #5
     7b6:	f001 0a1f 	and.w	sl, r1, #31
     7ba:	2101      	movs	r1, #1
     7bc:	fa01 f10a 	lsl.w	r1, r1, sl
     7c0:	3320      	adds	r3, #32
     7c2:	f8df a03c 	ldr.w	sl, [pc, #60]	; 800 <enNvicBackup+0x330>
     7c6:	f84a 1023 	str.w	r1, [sl, r3, lsl #2]
  __ASM volatile ("dsb 0xF":::"memory");
     7ca:	f3bf 8f4f 	dsb	sy
  __ASM volatile ("isb 0xF":::"memory");
     7ce:	f3bf 8f6f 	isb	sy
     7d2:	e711      	b.n	5f8 <enNvicBackup+0x128>
                    if (Reset == bM4_INTC_WUPEN_CMPI0WUEN)
     7d4:	f8de 3000 	ldr.w	r3, [lr]
     7d8:	2b00      	cmp	r3, #0
     7da:	f47f af0d 	bne.w	5f8 <enNvicBackup+0x128>
     7de:	094b      	lsrs	r3, r1, #5
     7e0:	f001 0a1f 	and.w	sl, r1, #31
     7e4:	2101      	movs	r1, #1
     7e6:	fa01 f10a 	lsl.w	r1, r1, sl
     7ea:	3320      	adds	r3, #32
     7ec:	f8df a010 	ldr.w	sl, [pc, #16]	; 800 <enNvicBackup+0x330>
     7f0:	f84a 1023 	str.w	r1, [sl, r3, lsl #2]
  __ASM volatile ("dsb 0xF":::"memory");
     7f4:	f3bf 8f4f 	dsb	sy
  __ASM volatile ("isb 0xF":::"memory");
     7f8:	f3bf 8f6f 	isb	sy
     7fc:	e6fc      	b.n	5f8 <enNvicBackup+0x128>
     7fe:	bf00      	nop
     800:	e000e100 	and	lr, r0, r0, lsl #2
     804:	1fff8208 	svcne	0x00ff8208
     808:	10014417 	andne	r4, r1, r7, lsl r4
     80c:	42a20a48 	adcmi	r0, r2, #72, 20	; 0x48000
     810:	42a20a64 	adcmi	r0, r2, #100, 20	; 0x64000
     814:	42a20a50 	adcmi	r0, r2, #80, 20	; 0x50000
     818:	42a20a40 	adcmi	r0, r2, #64, 20	; 0x40000
     81c:	42a20a10 	adcmi	r0, r2, #16, 20	; 0x10000
     820:	42a20a04 	adcmi	r0, r2, #4, 20	; 0x4000
     824:	42a20a1c 	adcmi	r0, r2, #28, 20	; 0x1c000
     828:	00c60001 	sbceq	r0, r6, r1
     82c:	42a20a24 	adcmi	r0, r2, #36, 20	; 0x24000
     830:	42a20a54 	adcmi	r0, r2, #84, 20	; 0x54000
     834:	42a20a38 	adcmi	r0, r2, #56, 20	; 0x38000
     838:	42a20a5c 	adcmi	r0, r2, #92, 20	; 0x5c000
     83c:	42a20a30 	adcmi	r0, r2, #48, 20	; 0x30000
     840:	42a20a58 	adcmi	r0, r2, #88, 20	; 0x58000
     844:	42a20a4c 	adcmi	r0, r2, #76, 20	; 0x4c000
     848:	42a20a44 	adcmi	r0, r2, #68, 20	; 0x44000
                    if (Reset == bM4_INTC_WUPEN_PVD1WUEN)
     84c:	f8dc 3000 	ldr.w	r3, [ip]
     850:	2b00      	cmp	r3, #0
     852:	f47f aed1 	bne.w	5f8 <enNvicBackup+0x128>
     856:	094b      	lsrs	r3, r1, #5
     858:	f001 0a1f 	and.w	sl, r1, #31
     85c:	2101      	movs	r1, #1
     85e:	fa01 f10a 	lsl.w	r1, r1, sl
     862:	3320      	adds	r3, #32
     864:	f8df a274 	ldr.w	sl, [pc, #628]	; adc <enNvicBackup+0x60c>
     868:	f84a 1023 	str.w	r1, [sl, r3, lsl #2]
  __ASM volatile ("dsb 0xF":::"memory");
     86c:	f3bf 8f4f 	dsb	sy
  __ASM volatile ("isb 0xF":::"memory");
     870:	f3bf 8f6f 	isb	sy
     874:	e6c0      	b.n	5f8 <enNvicBackup+0x128>
                    if (Reset == bM4_INTC_WUPEN_PVD2WUEN)
     876:	683b      	ldr	r3, [r7, #0]
     878:	2b00      	cmp	r3, #0
     87a:	f47f aebd 	bne.w	5f8 <enNvicBackup+0x128>
     87e:	094b      	lsrs	r3, r1, #5
     880:	f001 0a1f 	and.w	sl, r1, #31
     884:	2101      	movs	r1, #1
     886:	fa01 f10a 	lsl.w	r1, r1, sl
     88a:	3320      	adds	r3, #32
     88c:	f8df a24c 	ldr.w	sl, [pc, #588]	; adc <enNvicBackup+0x60c>
     890:	f84a 1023 	str.w	r1, [sl, r3, lsl #2]
  __ASM volatile ("dsb 0xF":::"memory");
     894:	f3bf 8f4f 	dsb	sy
  __ASM volatile ("isb 0xF":::"memory");
     898:	f3bf 8f6f 	isb	sy
     89c:	e6ac      	b.n	5f8 <enNvicBackup+0x128>
                    if (Reset == bM4_INTC_WUPEN_EIRQWUEN0)
     89e:	4b85      	ldr	r3, [pc, #532]	; (ab4 <enNvicBackup+0x5e4>)
     8a0:	681b      	ldr	r3, [r3, #0]
     8a2:	2b00      	cmp	r3, #0
     8a4:	f47f aea8 	bne.w	5f8 <enNvicBackup+0x128>
     8a8:	094b      	lsrs	r3, r1, #5
     8aa:	f001 0a1f 	and.w	sl, r1, #31
     8ae:	2101      	movs	r1, #1
     8b0:	fa01 f10a 	lsl.w	r1, r1, sl
     8b4:	3320      	adds	r3, #32
     8b6:	f8df a224 	ldr.w	sl, [pc, #548]	; adc <enNvicBackup+0x60c>
     8ba:	f84a 1023 	str.w	r1, [sl, r3, lsl #2]
  __ASM volatile ("dsb 0xF":::"memory");
     8be:	f3bf 8f4f 	dsb	sy
  __ASM volatile ("isb 0xF":::"memory");
     8c2:	f3bf 8f6f 	isb	sy
     8c6:	e697      	b.n	5f8 <enNvicBackup+0x128>
                    if (Reset == bM4_INTC_WUPEN_EIRQWUEN2)
     8c8:	4b7b      	ldr	r3, [pc, #492]	; (ab8 <enNvicBackup+0x5e8>)
     8ca:	681b      	ldr	r3, [r3, #0]
     8cc:	2b00      	cmp	r3, #0
     8ce:	f47f ae93 	bne.w	5f8 <enNvicBackup+0x128>
     8d2:	094b      	lsrs	r3, r1, #5
     8d4:	f001 0a1f 	and.w	sl, r1, #31
     8d8:	2101      	movs	r1, #1
     8da:	fa01 f10a 	lsl.w	r1, r1, sl
     8de:	3320      	adds	r3, #32
     8e0:	f8df a1f8 	ldr.w	sl, [pc, #504]	; adc <enNvicBackup+0x60c>
     8e4:	f84a 1023 	str.w	r1, [sl, r3, lsl #2]
  __ASM volatile ("dsb 0xF":::"memory");
     8e8:	f3bf 8f4f 	dsb	sy
  __ASM volatile ("isb 0xF":::"memory");
     8ec:	f3bf 8f6f 	isb	sy
     8f0:	e682      	b.n	5f8 <enNvicBackup+0x128>
                    if (Reset == bM4_INTC_WUPEN_EIRQWUEN3)
     8f2:	4b72      	ldr	r3, [pc, #456]	; (abc <enNvicBackup+0x5ec>)
     8f4:	681b      	ldr	r3, [r3, #0]
     8f6:	2b00      	cmp	r3, #0
     8f8:	f47f ae7e 	bne.w	5f8 <enNvicBackup+0x128>
     8fc:	094b      	lsrs	r3, r1, #5
     8fe:	f001 0a1f 	and.w	sl, r1, #31
     902:	2101      	movs	r1, #1
     904:	fa01 f10a 	lsl.w	r1, r1, sl
     908:	3320      	adds	r3, #32
     90a:	f8df a1d0 	ldr.w	sl, [pc, #464]	; adc <enNvicBackup+0x60c>
     90e:	f84a 1023 	str.w	r1, [sl, r3, lsl #2]
  __ASM volatile ("dsb 0xF":::"memory");
     912:	f3bf 8f4f 	dsb	sy
  __ASM volatile ("isb 0xF":::"memory");
     916:	f3bf 8f6f 	isb	sy
     91a:	e66d      	b.n	5f8 <enNvicBackup+0x128>
                    if (Reset == bM4_INTC_WUPEN_EIRQWUEN5)
     91c:	4b68      	ldr	r3, [pc, #416]	; (ac0 <enNvicBackup+0x5f0>)
     91e:	681b      	ldr	r3, [r3, #0]
     920:	2b00      	cmp	r3, #0
     922:	f47f ae69 	bne.w	5f8 <enNvicBackup+0x128>
     926:	094b      	lsrs	r3, r1, #5
     928:	f001 0a1f 	and.w	sl, r1, #31
     92c:	2101      	movs	r1, #1
     92e:	fa01 f10a 	lsl.w	r1, r1, sl
     932:	3320      	adds	r3, #32
     934:	f8df a1a4 	ldr.w	sl, [pc, #420]	; adc <enNvicBackup+0x60c>
     938:	f84a 1023 	str.w	r1, [sl, r3, lsl #2]
  __ASM volatile ("dsb 0xF":::"memory");
     93c:	f3bf 8f4f 	dsb	sy
  __ASM volatile ("isb 0xF":::"memory");
     940:	f3bf 8f6f 	isb	sy
     944:	e658      	b.n	5f8 <enNvicBackup+0x128>
                    if (Reset == bM4_INTC_WUPEN_EIRQWUEN6)
     946:	4b5f      	ldr	r3, [pc, #380]	; (ac4 <enNvicBackup+0x5f4>)
     948:	681b      	ldr	r3, [r3, #0]
     94a:	2b00      	cmp	r3, #0
     94c:	f47f ae54 	bne.w	5f8 <enNvicBackup+0x128>
     950:	094b      	lsrs	r3, r1, #5
     952:	f001 0a1f 	and.w	sl, r1, #31
     956:	2101      	movs	r1, #1
     958:	fa01 f10a 	lsl.w	r1, r1, sl
     95c:	3320      	adds	r3, #32
     95e:	f8df a17c 	ldr.w	sl, [pc, #380]	; adc <enNvicBackup+0x60c>
     962:	f84a 1023 	str.w	r1, [sl, r3, lsl #2]
  __ASM volatile ("dsb 0xF":::"memory");
     966:	f3bf 8f4f 	dsb	sy
  __ASM volatile ("isb 0xF":::"memory");
     96a:	f3bf 8f6f 	isb	sy
     96e:	e643      	b.n	5f8 <enNvicBackup+0x128>
                    if (Reset == bM4_INTC_WUPEN_EIRQWUEN8)
     970:	4b55      	ldr	r3, [pc, #340]	; (ac8 <enNvicBackup+0x5f8>)
     972:	681b      	ldr	r3, [r3, #0]
     974:	2b00      	cmp	r3, #0
     976:	f47f ae3f 	bne.w	5f8 <enNvicBackup+0x128>
     97a:	094b      	lsrs	r3, r1, #5
     97c:	f001 0a1f 	and.w	sl, r1, #31
     980:	2101      	movs	r1, #1
     982:	fa01 f10a 	lsl.w	r1, r1, sl
     986:	3320      	adds	r3, #32
     988:	f8df a150 	ldr.w	sl, [pc, #336]	; adc <enNvicBackup+0x60c>
     98c:	f84a 1023 	str.w	r1, [sl, r3, lsl #2]
  __ASM volatile ("dsb 0xF":::"memory");
     990:	f3bf 8f4f 	dsb	sy
  __ASM volatile ("isb 0xF":::"memory");
     994:	f3bf 8f6f 	isb	sy
     998:	e62e      	b.n	5f8 <enNvicBackup+0x128>
                    if (Reset == bM4_INTC_WUPEN_EIRQWUEN10)
     99a:	4b4c      	ldr	r3, [pc, #304]	; (acc <enNvicBackup+0x5fc>)
     99c:	681b      	ldr	r3, [r3, #0]
     99e:	2b00      	cmp	r3, #0
     9a0:	f47f ae2a 	bne.w	5f8 <enNvicBackup+0x128>
     9a4:	094b      	lsrs	r3, r1, #5
     9a6:	f001 0a1f 	and.w	sl, r1, #31
     9aa:	2101      	movs	r1, #1
     9ac:	fa01 f10a 	lsl.w	r1, r1, sl
     9b0:	3320      	adds	r3, #32
     9b2:	f8df a128 	ldr.w	sl, [pc, #296]	; adc <enNvicBackup+0x60c>
     9b6:	f84a 1023 	str.w	r1, [sl, r3, lsl #2]
  __ASM volatile ("dsb 0xF":::"memory");
     9ba:	f3bf 8f4f 	dsb	sy
  __ASM volatile ("isb 0xF":::"memory");
     9be:	f3bf 8f6f 	isb	sy
     9c2:	e619      	b.n	5f8 <enNvicBackup+0x128>
                    if (Reset == bM4_INTC_WUPEN_EIRQWUEN11)
     9c4:	4b42      	ldr	r3, [pc, #264]	; (ad0 <enNvicBackup+0x600>)
     9c6:	681b      	ldr	r3, [r3, #0]
     9c8:	2b00      	cmp	r3, #0
     9ca:	f47f ae15 	bne.w	5f8 <enNvicBackup+0x128>
     9ce:	094b      	lsrs	r3, r1, #5
     9d0:	f001 0a1f 	and.w	sl, r1, #31
     9d4:	2101      	movs	r1, #1
     9d6:	fa01 f10a 	lsl.w	r1, r1, sl
     9da:	3320      	adds	r3, #32
     9dc:	f8df a0fc 	ldr.w	sl, [pc, #252]	; adc <enNvicBackup+0x60c>
     9e0:	f84a 1023 	str.w	r1, [sl, r3, lsl #2]
  __ASM volatile ("dsb 0xF":::"memory");
     9e4:	f3bf 8f4f 	dsb	sy
  __ASM volatile ("isb 0xF":::"memory");
     9e8:	f3bf 8f6f 	isb	sy
     9ec:	e604      	b.n	5f8 <enNvicBackup+0x128>
                    if (Reset == bM4_INTC_WUPEN_EIRQWUEN12)
     9ee:	f8d9 3000 	ldr.w	r3, [r9]
     9f2:	2b00      	cmp	r3, #0
     9f4:	f47f ae00 	bne.w	5f8 <enNvicBackup+0x128>
     9f8:	094b      	lsrs	r3, r1, #5
     9fa:	f001 0a1f 	and.w	sl, r1, #31
     9fe:	2101      	movs	r1, #1
     a00:	fa01 f10a 	lsl.w	r1, r1, sl
     a04:	3320      	adds	r3, #32
     a06:	f8df a0d4 	ldr.w	sl, [pc, #212]	; adc <enNvicBackup+0x60c>
     a0a:	f84a 1023 	str.w	r1, [sl, r3, lsl #2]
  __ASM volatile ("dsb 0xF":::"memory");
     a0e:	f3bf 8f4f 	dsb	sy
  __ASM volatile ("isb 0xF":::"memory");
     a12:	f3bf 8f6f 	isb	sy
     a16:	e5ef      	b.n	5f8 <enNvicBackup+0x128>
                    if (Reset == bM4_INTC_WUPEN_EIRQWUEN13)
     a18:	4b2e      	ldr	r3, [pc, #184]	; (ad4 <enNvicBackup+0x604>)
     a1a:	681b      	ldr	r3, [r3, #0]
     a1c:	2b00      	cmp	r3, #0
     a1e:	f47f adeb 	bne.w	5f8 <enNvicBackup+0x128>
     a22:	094b      	lsrs	r3, r1, #5
     a24:	f001 0a1f 	and.w	sl, r1, #31
     a28:	2101      	movs	r1, #1
     a2a:	fa01 f10a 	lsl.w	r1, r1, sl
     a2e:	3320      	adds	r3, #32
     a30:	f8df a0a8 	ldr.w	sl, [pc, #168]	; adc <enNvicBackup+0x60c>
     a34:	f84a 1023 	str.w	r1, [sl, r3, lsl #2]
  __ASM volatile ("dsb 0xF":::"memory");
     a38:	f3bf 8f4f 	dsb	sy
  __ASM volatile ("isb 0xF":::"memory");
     a3c:	f3bf 8f6f 	isb	sy
     a40:	e5da      	b.n	5f8 <enNvicBackup+0x128>
                    {
                        NVIC_DisableIRQ((IRQn_Type)u8Cnt);
                    }
                    break;
                case INT_PORT_EIRQ15:
                    if (Reset == bM4_INTC_WUPEN_EIRQWUEN15)
     a42:	4b25      	ldr	r3, [pc, #148]	; (ad8 <enNvicBackup+0x608>)
     a44:	681b      	ldr	r3, [r3, #0]
     a46:	2b00      	cmp	r3, #0
     a48:	f47f add6 	bne.w	5f8 <enNvicBackup+0x128>
     a4c:	094b      	lsrs	r3, r1, #5
     a4e:	f001 0a1f 	and.w	sl, r1, #31
     a52:	2101      	movs	r1, #1
     a54:	fa01 f10a 	lsl.w	r1, r1, sl
     a58:	3320      	adds	r3, #32
     a5a:	f8df a080 	ldr.w	sl, [pc, #128]	; adc <enNvicBackup+0x60c>
     a5e:	f84a 1023 	str.w	r1, [sl, r3, lsl #2]
  __ASM volatile ("dsb 0xF":::"memory");
     a62:	f3bf 8f4f 	dsb	sy
  __ASM volatile ("isb 0xF":::"memory");
     a66:	f3bf 8f6f 	isb	sy
     a6a:	e5c5      	b.n	5f8 <enNvicBackup+0x128>
    en_result_t enRet = Ok;
     a6c:	2000      	movs	r0, #0
            enRet = ErrorInvalidParameter;
            break;
        }
    }
    return enRet;
}
     a6e:	e8bd 8ff0 	ldmia.w	sp!, {r4, r5, r6, r7, r8, r9, sl, fp, pc}
            enRet = ErrorInvalidParameter;
     a72:	2004      	movs	r0, #4
    return enRet;
     a74:	e7fb      	b.n	a6e <enNvicBackup+0x59e>
        if (IS_VALID_WKUP_SRC(u32WakeupSrc))
     a76:	f5b3 7fd0 	cmp.w	r3, #416	; 0x1a0
     a7a:	f43f ade1 	beq.w	640 <enNvicBackup+0x170>
     a7e:	2b0f      	cmp	r3, #15
     a80:	f67f adde 	bls.w	640 <enNvicBackup+0x170>
        else if (INT_MAX != stcIntSel->INTSEL)
     a84:	f8da 3000 	ldr.w	r3, [sl]
     a88:	f3c3 0308 	ubfx	r3, r3, #0, #9
     a8c:	f240 1aff 	movw	sl, #511	; 0x1ff
     a90:	4553      	cmp	r3, sl
     a92:	d0ee      	beq.n	a72 <enNvicBackup+0x5a2>
     a94:	094b      	lsrs	r3, r1, #5
     a96:	f001 0a1f 	and.w	sl, r1, #31
     a9a:	2101      	movs	r1, #1
     a9c:	fa01 f10a 	lsl.w	r1, r1, sl
     aa0:	3320      	adds	r3, #32
     aa2:	f8df a038 	ldr.w	sl, [pc, #56]	; adc <enNvicBackup+0x60c>
     aa6:	f84a 1023 	str.w	r1, [sl, r3, lsl #2]
  __ASM volatile ("dsb 0xF":::"memory");
     aaa:	f3bf 8f4f 	dsb	sy
  __ASM volatile ("isb 0xF":::"memory");
     aae:	f3bf 8f6f 	isb	sy
     ab2:	e5a1      	b.n	5f8 <enNvicBackup+0x128>
     ab4:	42a20a00 	adcmi	r0, r2, #0, 20
     ab8:	42a20a08 	adcmi	r0, r2, #8, 20	; 0x8000
     abc:	42a20a0c 	adcmi	r0, r2, #12, 20	; 0xc000
     ac0:	42a20a14 	adcmi	r0, r2, #20, 20	; 0x14000
     ac4:	42a20a18 	adcmi	r0, r2, #24, 20	; 0x18000
     ac8:	42a20a20 	adcmi	r0, r2, #32, 20	; 0x20000
     acc:	42a20a28 	adcmi	r0, r2, #40, 20	; 0x28000
     ad0:	42a20a2c 	adcmi	r0, r2, #44, 20	; 0x2c000
     ad4:	42a20a34 	adcmi	r0, r2, #52, 20	; 0x34000
     ad8:	42a20a3c 	adcmi	r0, r2, #60, 20	; 0x3c000
     adc:	e000e100 	and	lr, r0, r0, lsl #2

00000ae0 <enNvicRecover>:
{
    uint8_t u8Cnt;

    for (u8Cnt = 0u; u8Cnt < sizeof(NVIC_ISER_BAK)/sizeof(uint32_t); u8Cnt++)
    {
        NVIC->ISER[u8Cnt] = NVIC_ISER_BAK[u8Cnt];
     ae0:	4a06      	ldr	r2, [pc, #24]	; (afc <enNvicRecover+0x1c>)
     ae2:	6811      	ldr	r1, [r2, #0]
     ae4:	4b06      	ldr	r3, [pc, #24]	; (b00 <enNvicRecover+0x20>)
     ae6:	6019      	str	r1, [r3, #0]
     ae8:	6851      	ldr	r1, [r2, #4]
     aea:	6059      	str	r1, [r3, #4]
     aec:	6891      	ldr	r1, [r2, #8]
     aee:	6099      	str	r1, [r3, #8]
     af0:	68d1      	ldr	r1, [r2, #12]
     af2:	60d9      	str	r1, [r3, #12]
     af4:	6912      	ldr	r2, [r2, #16]
     af6:	611a      	str	r2, [r3, #16]
    }
    return Ok;
}
     af8:	2000      	movs	r0, #0
     afa:	4770      	bx	lr
     afc:	1fff8208 	svcne	0x00ff8208
     b00:	e000e100 	and	lr, r0, r0, lsl #2

00000b04 <enIrqRegistration>:
 **                                     Interrupt select register (INTSEL) is
 **                                     default value (0x1FFu) before setting.
 **
 *****************************************************************************/
en_result_t enIrqRegistration(const stc_irq_regi_conf_t *pstcIrqRegiConf)
{
     b04:	b410      	push	{r4}

    //DDL_ASSERT(NULL != pstcIrqRegiConf->pfnCallback);
    DDL_ASSERT(IS_NULL_POINT(pstcIrqRegiConf->pfnCallback));

    /* IRQ032~128 whether out of range */
    if (((((pstcIrqRegiConf->enIntSrc/32u)*6u + 32u) > pstcIrqRegiConf->enIRQn) || \
     b06:	8801      	ldrh	r1, [r0, #0]
     b08:	094b      	lsrs	r3, r1, #5
     b0a:	eb03 0343 	add.w	r3, r3, r3, lsl #1
     b0e:	005b      	lsls	r3, r3, #1
     b10:	f9b0 2002 	ldrsh.w	r2, [r0, #2]
     b14:	f103 0420 	add.w	r4, r3, #32
     b18:	4294      	cmp	r4, r2
     b1a:	d802      	bhi.n	b22 <enIrqRegistration+0x1e>
        (((pstcIrqRegiConf->enIntSrc/32u)*6u + 37u) < pstcIrqRegiConf->enIRQn)) && \
     b1c:	3325      	adds	r3, #37	; 0x25
    if (((((pstcIrqRegiConf->enIntSrc/32u)*6u + 32u) > pstcIrqRegiConf->enIRQn) || \
     b1e:	429a      	cmp	r2, r3
     b20:	d902      	bls.n	b28 <enIrqRegistration+0x24>
        (((pstcIrqRegiConf->enIntSrc/32u)*6u + 37u) < pstcIrqRegiConf->enIRQn)) && \
     b22:	b293      	uxth	r3, r2
     b24:	2b1f      	cmp	r3, #31
     b26:	d819      	bhi.n	b5c <enIrqRegistration+0x58>
    {
        enRet = ErrorInvalidParameter;
    }
    else
    {
        stcIntSel = (stc_intc_sel_field_t *)((uint32_t)(&M4_INTC->SEL0)         +   \
     b28:	4b0d      	ldr	r3, [pc, #52]	; (b60 <enIrqRegistration+0x5c>)
     b2a:	4413      	add	r3, r2
     b2c:	009b      	lsls	r3, r3, #2
                                             (4u * pstcIrqRegiConf->enIRQn));
        if (0x1FFu == stcIntSel->INTSEL)
     b2e:	681a      	ldr	r2, [r3, #0]
     b30:	f3c2 0208 	ubfx	r2, r2, #0, #9
     b34:	f240 14ff 	movw	r4, #511	; 0x1ff
     b38:	42a2      	cmp	r2, r4
     b3a:	d003      	beq.n	b44 <enIrqRegistration+0x40>
            stcIntSel->INTSEL = pstcIrqRegiConf->enIntSrc;
            IrqHandler[pstcIrqRegiConf->enIRQn] = pstcIrqRegiConf->pfnCallback;
        }
        else
        {
            enRet = ErrorUninitialized;
     b3c:	2007      	movs	r0, #7
        }
    }
    return enRet;
}
     b3e:	f85d 4b04 	ldr.w	r4, [sp], #4
     b42:	4770      	bx	lr
            stcIntSel->INTSEL = pstcIrqRegiConf->enIntSrc;
     b44:	681a      	ldr	r2, [r3, #0]
     b46:	f361 0208 	bfi	r2, r1, #0, #9
     b4a:	601a      	str	r2, [r3, #0]
            IrqHandler[pstcIrqRegiConf->enIRQn] = pstcIrqRegiConf->pfnCallback;
     b4c:	6841      	ldr	r1, [r0, #4]
     b4e:	f9b0 2002 	ldrsh.w	r2, [r0, #2]
     b52:	4b04      	ldr	r3, [pc, #16]	; (b64 <enIrqRegistration+0x60>)
     b54:	f843 1022 	str.w	r1, [r3, r2, lsl #2]
    en_result_t enRet = Ok;
     b58:	2000      	movs	r0, #0
     b5a:	e7f0      	b.n	b3e <enIrqRegistration+0x3a>
        enRet = ErrorInvalidParameter;
     b5c:	2004      	movs	r0, #4
     b5e:	e7ee      	b.n	b3e <enIrqRegistration+0x3a>
     b60:	10014417 	andne	r4, r1, r7, lsl r4
     b64:	1fff8004 	svcne	0x00ff8004

00000b68 <enIrqResign>:
en_result_t enIrqResign(IRQn_Type enIRQn)
{
    stc_intc_sel_field_t *stcIntSel;
    en_result_t enRet = Ok;

    if ((enIRQn < Int000_IRQn) || (enIRQn > Int127_IRQn))
     b68:	b283      	uxth	r3, r0
     b6a:	2b7f      	cmp	r3, #127	; 0x7f
     b6c:	d80e      	bhi.n	b8c <enIrqResign+0x24>
    {
        enRet = ErrorInvalidParameter;
    }
    else
    {
        stcIntSel = (stc_intc_sel_field_t *)((uint32_t)(&M4_INTC->SEL0) + (4ul * enIRQn));
     b6e:	4b08      	ldr	r3, [pc, #32]	; (b90 <enIrqResign+0x28>)
     b70:	4403      	add	r3, r0
     b72:	009b      	lsls	r3, r3, #2
        stcIntSel->INTSEL = 0x1FFu;
     b74:	681a      	ldr	r2, [r3, #0]
     b76:	f240 11ff 	movw	r1, #511	; 0x1ff
     b7a:	f361 0208 	bfi	r2, r1, #0, #9
     b7e:	601a      	str	r2, [r3, #0]
        IrqHandler[enIRQn] = NULL;
     b80:	2300      	movs	r3, #0
     b82:	4a04      	ldr	r2, [pc, #16]	; (b94 <enIrqResign+0x2c>)
     b84:	f842 3020 	str.w	r3, [r2, r0, lsl #2]
    en_result_t enRet = Ok;
     b88:	4618      	mov	r0, r3
     b8a:	4770      	bx	lr
        enRet = ErrorInvalidParameter;
     b8c:	2004      	movs	r0, #4
    }
    return enRet;
}
     b8e:	4770      	bx	lr
     b90:	10014417 	andne	r4, r1, r7, lsl r4
     b94:	1fff8004 	svcne	0x00ff8004

00000b98 <enShareIrqEnable>:
{
    uint32_t *VSSELx;

    //todo assert

    VSSELx = (uint32_t *)(((uint32_t)&M4_INTC->VSSEL128) + (4u * (enIntSrc/32u)));
     b98:	4b06      	ldr	r3, [pc, #24]	; (bb4 <enShareIrqEnable+0x1c>)
     b9a:	eb03 1350 	add.w	r3, r3, r0, lsr #5
     b9e:	009b      	lsls	r3, r3, #2
    *VSSELx |= (uint32_t)(1ul << (enIntSrc & 0x1Fu));
     ba0:	f000 001f 	and.w	r0, r0, #31
     ba4:	2201      	movs	r2, #1
     ba6:	fa02 f000 	lsl.w	r0, r2, r0
     baa:	681a      	ldr	r2, [r3, #0]
     bac:	4302      	orrs	r2, r0
     bae:	601a      	str	r2, [r3, #0]

    return Ok;
}
     bb0:	2000      	movs	r0, #0
     bb2:	4770      	bx	lr
     bb4:	10014497 	mulne	r1, r7, r4

00000bb8 <enShareIrqDisable>:
{
    uint32_t *VSSELx;

    //todo assert

    VSSELx = (uint32_t *)(((uint32_t)&M4_INTC->VSSEL128) + (4u * (enIntSrc/32u)));
     bb8:	4b07      	ldr	r3, [pc, #28]	; (bd8 <enShareIrqDisable+0x20>)
     bba:	eb03 1350 	add.w	r3, r3, r0, lsr #5
     bbe:	009b      	lsls	r3, r3, #2
    *VSSELx &= ~(uint32_t)(1ul << (enIntSrc & 0x1Fu));
     bc0:	f000 001f 	and.w	r0, r0, #31
     bc4:	2201      	movs	r2, #1
     bc6:	fa02 f000 	lsl.w	r0, r2, r0
     bca:	681a      	ldr	r2, [r3, #0]
     bcc:	ea22 0200 	bic.w	r2, r2, r0
     bd0:	601a      	str	r2, [r3, #0]

    return Ok;
}
     bd2:	2000      	movs	r0, #0
     bd4:	4770      	bx	lr
     bd6:	bf00      	nop
     bd8:	10014497 	mulne	r1, r7, r4

00000bdc <enIntWakeupEnable>:
 **
 ******************************************************************************/
en_result_t enIntWakeupEnable(uint32_t u32WakeupSrc)
{
    en_result_t enRet = Ok;
    if (0ul != (u32WakeupSrc & 0xFD000000ul))
     bdc:	f010 4f7d 	tst.w	r0, #4244635648	; 0xfd000000
     be0:	d105      	bne.n	bee <enIntWakeupEnable+0x12>
    {
        enRet = ErrorInvalidParameter;
    }
    else
    {
        M4_INTC->WUPEN |= u32WakeupSrc;
     be2:	4a04      	ldr	r2, [pc, #16]	; (bf4 <enIntWakeupEnable+0x18>)
     be4:	6d13      	ldr	r3, [r2, #80]	; 0x50
     be6:	4318      	orrs	r0, r3
     be8:	6510      	str	r0, [r2, #80]	; 0x50
    en_result_t enRet = Ok;
     bea:	2000      	movs	r0, #0
     bec:	4770      	bx	lr
        enRet = ErrorInvalidParameter;
     bee:	2004      	movs	r0, #4
    }
    return enRet;
}
     bf0:	4770      	bx	lr
     bf2:	bf00      	nop
     bf4:	40051000 	andmi	r1, r5, r0

00000bf8 <enIntWakeupDisable>:
 **
 ******************************************************************************/
en_result_t enIntWakeupDisable(uint32_t u32WakeupSrc)
{
    en_result_t enRet = Ok;
    if (0ul != (u32WakeupSrc & 0xFD000000u))
     bf8:	f010 4f7d 	tst.w	r0, #4244635648	; 0xfd000000
     bfc:	d106      	bne.n	c0c <Heap_Size+0xc>
    {
        enRet = ErrorInvalidParameter;
    }
    else
    {
        M4_INTC->WUPEN &= ~u32WakeupSrc;
     bfe:	4a04      	ldr	r2, [pc, #16]	; (c10 <Heap_Size+0x10>)
     c00:	6d13      	ldr	r3, [r2, #80]	; 0x50
     c02:	ea23 0000 	bic.w	r0, r3, r0
     c06:	6510      	str	r0, [r2, #80]	; 0x50
    en_result_t enRet = Ok;
     c08:	2000      	movs	r0, #0
     c0a:	4770      	bx	lr
        enRet = ErrorInvalidParameter;
     c0c:	2004      	movs	r0, #4
    }
    return enRet;
}
     c0e:	4770      	bx	lr
     c10:	40051000 	andmi	r1, r5, r0

00000c14 <enEventEnable>:
 ** retval                              Ok, corresponding event Ch. be enabled
 **
 ******************************************************************************/
en_result_t enEventEnable(uint32_t u32Event)
{
    M4_INTC->EVTER |= u32Event;
     c14:	4a03      	ldr	r2, [pc, #12]	; (c24 <enEventEnable+0x10>)
     c16:	f8d2 32a0 	ldr.w	r3, [r2, #672]	; 0x2a0
     c1a:	4318      	orrs	r0, r3
     c1c:	f8c2 02a0 	str.w	r0, [r2, #672]	; 0x2a0
    return Ok;
}
     c20:	2000      	movs	r0, #0
     c22:	4770      	bx	lr
     c24:	40051000 	andmi	r1, r5, r0

00000c28 <enEventDisable>:
 ** retval                              Ok, corresponding event Ch. be disabled
 **
 ******************************************************************************/
en_result_t enEventDisable(uint32_t u32Event)
{
    M4_INTC->EVTER &= ~u32Event;
     c28:	4a04      	ldr	r2, [pc, #16]	; (c3c <enEventDisable+0x14>)
     c2a:	f8d2 32a0 	ldr.w	r3, [r2, #672]	; 0x2a0
     c2e:	ea23 0000 	bic.w	r0, r3, r0
     c32:	f8c2 02a0 	str.w	r0, [r2, #672]	; 0x2a0
    return Ok;
}
     c36:	2000      	movs	r0, #0
     c38:	4770      	bx	lr
     c3a:	bf00      	nop
     c3c:	40051000 	andmi	r1, r5, r0

00000c40 <enIntEnable>:
 ** retval                              Ok, corresponding interrupt vector be enabled
 **
 ******************************************************************************/
en_result_t enIntEnable(uint32_t u32Int)
{
    M4_INTC->IER |= u32Int;
     c40:	4a03      	ldr	r2, [pc, #12]	; (c50 <enIntEnable+0x10>)
     c42:	f8d2 32a4 	ldr.w	r3, [r2, #676]	; 0x2a4
     c46:	4318      	orrs	r0, r3
     c48:	f8c2 02a4 	str.w	r0, [r2, #676]	; 0x2a4
    return Ok;
}
     c4c:	2000      	movs	r0, #0
     c4e:	4770      	bx	lr
     c50:	40051000 	andmi	r1, r5, r0

00000c54 <enIntDisable>:
 ** retval                              Ok, corresponding interrupt vector be disabled
 **
 ******************************************************************************/
en_result_t enIntDisable(uint32_t u32Int)
{
    M4_INTC->IER &= ~u32Int;
     c54:	4a04      	ldr	r2, [pc, #16]	; (c68 <enIntDisable+0x14>)
     c56:	f8d2 32a4 	ldr.w	r3, [r2, #676]	; 0x2a4
     c5a:	ea23 0000 	bic.w	r0, r3, r0
     c5e:	f8c2 02a4 	str.w	r0, [r2, #676]	; 0x2a4
    return Ok;
}
     c62:	2000      	movs	r0, #0
     c64:	4770      	bx	lr
     c66:	bf00      	nop
     c68:	40051000 	andmi	r1, r5, r0

00000c6c <NMI_Handler>:
 *******************************************************************************
 ** \brief NMI IRQ handler
 **
 ******************************************************************************/
void NMI_Handler(void)
{
     c6c:	b508      	push	{r3, lr}
    NMI_IrqHandler();
     c6e:	f002 fd09 	bl	3684 <NMI_IrqHandler>
}
     c72:	bd08      	pop	{r3, pc}

00000c74 <HardFault_Handler>:
 *******************************************************************************
 ** \brief Hard Fault IRQ handler
 **
 ******************************************************************************/
void HardFault_Handler(void)
{
     c74:	b508      	push	{r3, lr}
    HardFault_IrqHandler();
     c76:	f3af 8000 	nop.w
}
     c7a:	bd08      	pop	{r3, pc}

00000c7c <MemManage_Handler>:
 *******************************************************************************
 ** \brief MPU Fault IRQ handler
 **
 ******************************************************************************/
void MemManage_Handler(void)
{
     c7c:	b508      	push	{r3, lr}
    MemManage_IrqHandler();
     c7e:	f3af 8000 	nop.w
}
     c82:	bd08      	pop	{r3, pc}

00000c84 <BusFault_Handler>:
 *******************************************************************************
 ** \brief Bus Fault IRQ handler
 **
 ******************************************************************************/
void BusFault_Handler(void)
{
     c84:	b508      	push	{r3, lr}
    BusFault_IrqHandler();
     c86:	f3af 8000 	nop.w
}
     c8a:	bd08      	pop	{r3, pc}

00000c8c <UsageFault_Handler>:
 *******************************************************************************
 ** \brief Usage Fault IRQ handler
 **
 ******************************************************************************/
void UsageFault_Handler(void)
{
     c8c:	b508      	push	{r3, lr}
    UsageFault_IrqHandler();
     c8e:	f3af 8000 	nop.w
}
     c92:	bd08      	pop	{r3, pc}

00000c94 <SVC_Handler>:
 *******************************************************************************
 ** \brief SVCall IRQ handler
 **
 ******************************************************************************/
void SVC_Handler(void)
{
     c94:	b508      	push	{r3, lr}
    SVC_IrqHandler();
     c96:	f3af 8000 	nop.w
}
     c9a:	bd08      	pop	{r3, pc}

00000c9c <DebugMon_Handler>:
 *******************************************************************************
 ** \brief DebugMon IRQ handler
 **
 ******************************************************************************/
void DebugMon_Handler(void)
{
     c9c:	b508      	push	{r3, lr}
    DebugMon_IrqHandler();
     c9e:	f3af 8000 	nop.w
}
     ca2:	bd08      	pop	{r3, pc}

00000ca4 <PendSV_Handler>:
 *******************************************************************************
 ** \brief PendSV IRQ handler
 **
 ******************************************************************************/
void PendSV_Handler(void)
{
     ca4:	b508      	push	{r3, lr}
    PendSV_IrqHandler();
     ca6:	f3af 8000 	nop.w
}
     caa:	bd08      	pop	{r3, pc}

00000cac <SysTick_Handler>:
 *******************************************************************************
 ** \brief Systick IRQ handler
 **
 ******************************************************************************/
void SysTick_Handler(void)
{
     cac:	b508      	push	{r3, lr}
    SysTick_IrqHandler();
     cae:	f3af 8000 	nop.w
}
     cb2:	bd08      	pop	{r3, pc}

00000cb4 <IRQ000_Handler>:
 *******************************************************************************
 ** \brief Int No.000 IRQ handler
 **
 ******************************************************************************/
void IRQ000_Handler(void)
{
     cb4:	b508      	push	{r3, lr}
    if (NULL != IrqHandler[Int000_IRQn])
     cb6:	4b02      	ldr	r3, [pc, #8]	; (cc0 <IRQ000_Handler+0xc>)
     cb8:	681b      	ldr	r3, [r3, #0]
     cba:	b103      	cbz	r3, cbe <IRQ000_Handler+0xa>
    {
        IrqHandler[Int000_IRQn]();
     cbc:	4798      	blx	r3
    }
}
     cbe:	bd08      	pop	{r3, pc}
     cc0:	1fff8004 	svcne	0x00ff8004

00000cc4 <IRQ001_Handler>:
 *******************************************************************************
 ** \brief Int No.001 IRQ handler
 **
 ******************************************************************************/
void IRQ001_Handler(void)
{
     cc4:	b508      	push	{r3, lr}
    if (NULL != IrqHandler[Int001_IRQn])
     cc6:	4b02      	ldr	r3, [pc, #8]	; (cd0 <IRQ001_Handler+0xc>)
     cc8:	685b      	ldr	r3, [r3, #4]
     cca:	b103      	cbz	r3, cce <IRQ001_Handler+0xa>
    {
        IrqHandler[Int001_IRQn]();
     ccc:	4798      	blx	r3
    }
}
     cce:	bd08      	pop	{r3, pc}
     cd0:	1fff8004 	svcne	0x00ff8004

00000cd4 <IRQ002_Handler>:
 *******************************************************************************
 ** \brief Int No.002 IRQ handler
 **
 ******************************************************************************/
void IRQ002_Handler(void)
{
     cd4:	b508      	push	{r3, lr}
    if (NULL != IrqHandler[Int002_IRQn])
     cd6:	4b02      	ldr	r3, [pc, #8]	; (ce0 <IRQ002_Handler+0xc>)
     cd8:	689b      	ldr	r3, [r3, #8]
     cda:	b103      	cbz	r3, cde <IRQ002_Handler+0xa>
    {
        IrqHandler[Int002_IRQn]();
     cdc:	4798      	blx	r3
    }
}
     cde:	bd08      	pop	{r3, pc}
     ce0:	1fff8004 	svcne	0x00ff8004

00000ce4 <IRQ003_Handler>:
 *******************************************************************************
 ** \brief Int No.003 IRQ handler
 **
 ******************************************************************************/
void IRQ003_Handler(void)
{
     ce4:	b508      	push	{r3, lr}
    if (NULL != IrqHandler[Int003_IRQn])
     ce6:	4b02      	ldr	r3, [pc, #8]	; (cf0 <IRQ003_Handler+0xc>)
     ce8:	68db      	ldr	r3, [r3, #12]
     cea:	b103      	cbz	r3, cee <IRQ003_Handler+0xa>
    {
        IrqHandler[Int003_IRQn]();
     cec:	4798      	blx	r3
    }
}
     cee:	bd08      	pop	{r3, pc}
     cf0:	1fff8004 	svcne	0x00ff8004

00000cf4 <IRQ004_Handler>:
 *******************************************************************************
 ** \brief Int No.004 IRQ handler
 **
 ******************************************************************************/
void IRQ004_Handler(void)
{
     cf4:	b508      	push	{r3, lr}
    if (NULL != IrqHandler[Int004_IRQn])
     cf6:	4b02      	ldr	r3, [pc, #8]	; (d00 <IRQ004_Handler+0xc>)
     cf8:	691b      	ldr	r3, [r3, #16]
     cfa:	b103      	cbz	r3, cfe <IRQ004_Handler+0xa>
    {
        IrqHandler[Int004_IRQn]();
     cfc:	4798      	blx	r3
    }
}
     cfe:	bd08      	pop	{r3, pc}
     d00:	1fff8004 	svcne	0x00ff8004

00000d04 <IRQ005_Handler>:
 *******************************************************************************
 ** \brief Int No.005 IRQ handler
 **
 ******************************************************************************/
void IRQ005_Handler(void)
{
     d04:	b508      	push	{r3, lr}
    if (NULL != IrqHandler[Int005_IRQn])
     d06:	4b02      	ldr	r3, [pc, #8]	; (d10 <IRQ005_Handler+0xc>)
     d08:	695b      	ldr	r3, [r3, #20]
     d0a:	b103      	cbz	r3, d0e <IRQ005_Handler+0xa>
    {
        IrqHandler[Int005_IRQn]();
     d0c:	4798      	blx	r3
    }
}
     d0e:	bd08      	pop	{r3, pc}
     d10:	1fff8004 	svcne	0x00ff8004

00000d14 <IRQ006_Handler>:
 *******************************************************************************
 ** \brief Int No.006 IRQ handler
 **
 ******************************************************************************/
void IRQ006_Handler(void)
{
     d14:	b508      	push	{r3, lr}
    if (NULL != IrqHandler[Int006_IRQn])
     d16:	4b02      	ldr	r3, [pc, #8]	; (d20 <IRQ006_Handler+0xc>)
     d18:	699b      	ldr	r3, [r3, #24]
     d1a:	b103      	cbz	r3, d1e <IRQ006_Handler+0xa>
    {
        IrqHandler[Int006_IRQn]();
     d1c:	4798      	blx	r3
    }
}
     d1e:	bd08      	pop	{r3, pc}
     d20:	1fff8004 	svcne	0x00ff8004

00000d24 <IRQ007_Handler>:
 *******************************************************************************
 ** \brief Int No.007 IRQ handler
 **
 ******************************************************************************/
void IRQ007_Handler(void)
{
     d24:	b508      	push	{r3, lr}
    if (NULL != IrqHandler[Int007_IRQn])
     d26:	4b02      	ldr	r3, [pc, #8]	; (d30 <IRQ007_Handler+0xc>)
     d28:	69db      	ldr	r3, [r3, #28]
     d2a:	b103      	cbz	r3, d2e <IRQ007_Handler+0xa>
    {
        IrqHandler[Int007_IRQn]();
     d2c:	4798      	blx	r3
    }
}
     d2e:	bd08      	pop	{r3, pc}
     d30:	1fff8004 	svcne	0x00ff8004

00000d34 <IRQ008_Handler>:
 *******************************************************************************
 ** \brief Int No.008 IRQ handler
 **
 ******************************************************************************/
void IRQ008_Handler(void)
{
     d34:	b508      	push	{r3, lr}
    if (NULL != IrqHandler[Int008_IRQn])
     d36:	4b02      	ldr	r3, [pc, #8]	; (d40 <IRQ008_Handler+0xc>)
     d38:	6a1b      	ldr	r3, [r3, #32]
     d3a:	b103      	cbz	r3, d3e <IRQ008_Handler+0xa>
    {
        IrqHandler[Int008_IRQn]();
     d3c:	4798      	blx	r3
    }
}
     d3e:	bd08      	pop	{r3, pc}
     d40:	1fff8004 	svcne	0x00ff8004

00000d44 <IRQ009_Handler>:
 *******************************************************************************
 ** \brief Int No.009 IRQ handler
 **
 ******************************************************************************/
void IRQ009_Handler(void)
{
     d44:	b508      	push	{r3, lr}
    if (NULL != IrqHandler[Int009_IRQn])
     d46:	4b02      	ldr	r3, [pc, #8]	; (d50 <IRQ009_Handler+0xc>)
     d48:	6a5b      	ldr	r3, [r3, #36]	; 0x24
     d4a:	b103      	cbz	r3, d4e <IRQ009_Handler+0xa>
    {
        IrqHandler[Int009_IRQn]();
     d4c:	4798      	blx	r3
    }
}
     d4e:	bd08      	pop	{r3, pc}
     d50:	1fff8004 	svcne	0x00ff8004

00000d54 <IRQ010_Handler>:
 *******************************************************************************
 ** \brief Int No.010 IRQ handler
 **
 ******************************************************************************/
void IRQ010_Handler(void)
{
     d54:	b508      	push	{r3, lr}
    if (NULL != IrqHandler[Int010_IRQn])
     d56:	4b02      	ldr	r3, [pc, #8]	; (d60 <IRQ010_Handler+0xc>)
     d58:	6a9b      	ldr	r3, [r3, #40]	; 0x28
     d5a:	b103      	cbz	r3, d5e <IRQ010_Handler+0xa>
    {
        IrqHandler[Int010_IRQn]();
     d5c:	4798      	blx	r3
    }
}
     d5e:	bd08      	pop	{r3, pc}
     d60:	1fff8004 	svcne	0x00ff8004

00000d64 <IRQ011_Handler>:
 *******************************************************************************
 ** \brief Int No.011 IRQ handler
 **
 ******************************************************************************/
void IRQ011_Handler(void)
{
     d64:	b508      	push	{r3, lr}
    if (NULL != IrqHandler[Int011_IRQn])
     d66:	4b02      	ldr	r3, [pc, #8]	; (d70 <IRQ011_Handler+0xc>)
     d68:	6adb      	ldr	r3, [r3, #44]	; 0x2c
     d6a:	b103      	cbz	r3, d6e <IRQ011_Handler+0xa>
    {
        IrqHandler[Int011_IRQn]();
     d6c:	4798      	blx	r3
    }
}
     d6e:	bd08      	pop	{r3, pc}
     d70:	1fff8004 	svcne	0x00ff8004

00000d74 <IRQ012_Handler>:
 *******************************************************************************
 ** \brief Int No.012 IRQ handler
 **
 ******************************************************************************/
void IRQ012_Handler(void)
{
     d74:	b508      	push	{r3, lr}
    if (NULL != IrqHandler[Int012_IRQn])
     d76:	4b02      	ldr	r3, [pc, #8]	; (d80 <IRQ012_Handler+0xc>)
     d78:	6b1b      	ldr	r3, [r3, #48]	; 0x30
     d7a:	b103      	cbz	r3, d7e <IRQ012_Handler+0xa>
    {
        IrqHandler[Int012_IRQn]();
     d7c:	4798      	blx	r3
    }
}
     d7e:	bd08      	pop	{r3, pc}
     d80:	1fff8004 	svcne	0x00ff8004

00000d84 <IRQ013_Handler>:
 *******************************************************************************
 ** \brief Int No.013 IRQ handler
 **
 ******************************************************************************/
void IRQ013_Handler(void)
{
     d84:	b508      	push	{r3, lr}
    if (NULL != IrqHandler[Int013_IRQn])
     d86:	4b02      	ldr	r3, [pc, #8]	; (d90 <IRQ013_Handler+0xc>)
     d88:	6b5b      	ldr	r3, [r3, #52]	; 0x34
     d8a:	b103      	cbz	r3, d8e <IRQ013_Handler+0xa>
    {
        IrqHandler[Int013_IRQn]();
     d8c:	4798      	blx	r3
    }
}
     d8e:	bd08      	pop	{r3, pc}
     d90:	1fff8004 	svcne	0x00ff8004

00000d94 <IRQ014_Handler>:
 *******************************************************************************
 ** \brief Int No.014 IRQ handler
 **
 ******************************************************************************/
void IRQ014_Handler(void)
{
     d94:	b508      	push	{r3, lr}
    if (NULL != IrqHandler[Int014_IRQn])
     d96:	4b02      	ldr	r3, [pc, #8]	; (da0 <IRQ014_Handler+0xc>)
     d98:	6b9b      	ldr	r3, [r3, #56]	; 0x38
     d9a:	b103      	cbz	r3, d9e <IRQ014_Handler+0xa>
    {
        IrqHandler[Int014_IRQn]();
     d9c:	4798      	blx	r3
    }
}
     d9e:	bd08      	pop	{r3, pc}
     da0:	1fff8004 	svcne	0x00ff8004

00000da4 <IRQ015_Handler>:
 *******************************************************************************
 ** \brief Int No.015 IRQ handler
 **
 ******************************************************************************/
void IRQ015_Handler(void)
{
     da4:	b508      	push	{r3, lr}
    if (NULL != IrqHandler[Int015_IRQn])
     da6:	4b02      	ldr	r3, [pc, #8]	; (db0 <IRQ015_Handler+0xc>)
     da8:	6bdb      	ldr	r3, [r3, #60]	; 0x3c
     daa:	b103      	cbz	r3, dae <IRQ015_Handler+0xa>
    {
        IrqHandler[Int015_IRQn]();
     dac:	4798      	blx	r3
    }
}
     dae:	bd08      	pop	{r3, pc}
     db0:	1fff8004 	svcne	0x00ff8004

00000db4 <IRQ016_Handler>:
 *******************************************************************************
 ** \brief Int No.016 IRQ handler
 **
 ******************************************************************************/
void IRQ016_Handler(void)
{
     db4:	b508      	push	{r3, lr}
    if (NULL != IrqHandler[Int016_IRQn])
     db6:	4b02      	ldr	r3, [pc, #8]	; (dc0 <IRQ016_Handler+0xc>)
     db8:	6c1b      	ldr	r3, [r3, #64]	; 0x40
     dba:	b103      	cbz	r3, dbe <IRQ016_Handler+0xa>
    {
        IrqHandler[Int016_IRQn]();
     dbc:	4798      	blx	r3
    }
}
     dbe:	bd08      	pop	{r3, pc}
     dc0:	1fff8004 	svcne	0x00ff8004

00000dc4 <IRQ017_Handler>:
 *******************************************************************************
 ** \brief Int No.017 IRQ handler
 **
 ******************************************************************************/
void IRQ017_Handler(void)
{
     dc4:	b508      	push	{r3, lr}
    if (NULL != IrqHandler[Int017_IRQn])
     dc6:	4b02      	ldr	r3, [pc, #8]	; (dd0 <IRQ017_Handler+0xc>)
     dc8:	6c5b      	ldr	r3, [r3, #68]	; 0x44
     dca:	b103      	cbz	r3, dce <IRQ017_Handler+0xa>
    {
        IrqHandler[Int017_IRQn]();
     dcc:	4798      	blx	r3
    }
}
     dce:	bd08      	pop	{r3, pc}
     dd0:	1fff8004 	svcne	0x00ff8004

00000dd4 <IRQ018_Handler>:
 *******************************************************************************
 ** \brief Int No.018 IRQ handler
 **
 ******************************************************************************/
void IRQ018_Handler(void)
{
     dd4:	b508      	push	{r3, lr}
    if (NULL != IrqHandler[Int018_IRQn])
     dd6:	4b02      	ldr	r3, [pc, #8]	; (de0 <IRQ018_Handler+0xc>)
     dd8:	6c9b      	ldr	r3, [r3, #72]	; 0x48
     dda:	b103      	cbz	r3, dde <IRQ018_Handler+0xa>
    {
        IrqHandler[Int018_IRQn]();
     ddc:	4798      	blx	r3
    }
}
     dde:	bd08      	pop	{r3, pc}
     de0:	1fff8004 	svcne	0x00ff8004

00000de4 <IRQ019_Handler>:
 *******************************************************************************
 ** \brief Int No.019 IRQ handler
 **
 ******************************************************************************/
void IRQ019_Handler(void)
{
     de4:	b508      	push	{r3, lr}
    if (NULL != IrqHandler[Int019_IRQn])
     de6:	4b02      	ldr	r3, [pc, #8]	; (df0 <IRQ019_Handler+0xc>)
     de8:	6cdb      	ldr	r3, [r3, #76]	; 0x4c
     dea:	b103      	cbz	r3, dee <IRQ019_Handler+0xa>
    {
        IrqHandler[Int019_IRQn]();
     dec:	4798      	blx	r3
    }
}
     dee:	bd08      	pop	{r3, pc}
     df0:	1fff8004 	svcne	0x00ff8004

00000df4 <IRQ020_Handler>:
 *******************************************************************************
 ** \brief Int No.020 IRQ handler
 **
 ******************************************************************************/
void IRQ020_Handler(void)
{
     df4:	b508      	push	{r3, lr}
    if (NULL != IrqHandler[Int020_IRQn])
     df6:	4b02      	ldr	r3, [pc, #8]	; (e00 <IRQ020_Handler+0xc>)
     df8:	6d1b      	ldr	r3, [r3, #80]	; 0x50
     dfa:	b103      	cbz	r3, dfe <IRQ020_Handler+0xa>
    {
        IrqHandler[Int020_IRQn]();
     dfc:	4798      	blx	r3
    }
}
     dfe:	bd08      	pop	{r3, pc}
     e00:	1fff8004 	svcne	0x00ff8004

00000e04 <IRQ021_Handler>:
 *******************************************************************************
 ** \brief Int No.021 IRQ handler
 **
 ******************************************************************************/
void IRQ021_Handler(void)
{
     e04:	b508      	push	{r3, lr}
    if (NULL != IrqHandler[Int021_IRQn])
     e06:	4b02      	ldr	r3, [pc, #8]	; (e10 <IRQ021_Handler+0xc>)
     e08:	6d5b      	ldr	r3, [r3, #84]	; 0x54
     e0a:	b103      	cbz	r3, e0e <IRQ021_Handler+0xa>
    {
        IrqHandler[Int021_IRQn]();
     e0c:	4798      	blx	r3
    }
}
     e0e:	bd08      	pop	{r3, pc}
     e10:	1fff8004 	svcne	0x00ff8004

00000e14 <IRQ022_Handler>:
 *******************************************************************************
 ** \brief Int No.022 IRQ handler
 **
 ******************************************************************************/
void IRQ022_Handler(void)
{
     e14:	b508      	push	{r3, lr}
    if (NULL != IrqHandler[Int022_IRQn])
     e16:	4b02      	ldr	r3, [pc, #8]	; (e20 <IRQ022_Handler+0xc>)
     e18:	6d9b      	ldr	r3, [r3, #88]	; 0x58
     e1a:	b103      	cbz	r3, e1e <IRQ022_Handler+0xa>
    {
        IrqHandler[Int022_IRQn]();
     e1c:	4798      	blx	r3
    }
}
     e1e:	bd08      	pop	{r3, pc}
     e20:	1fff8004 	svcne	0x00ff8004

00000e24 <IRQ023_Handler>:
 *******************************************************************************
 ** \brief Int No.023 IRQ handler
 **
 ******************************************************************************/
void IRQ023_Handler(void)
{
     e24:	b508      	push	{r3, lr}
    if (NULL != IrqHandler[Int023_IRQn])
     e26:	4b02      	ldr	r3, [pc, #8]	; (e30 <IRQ023_Handler+0xc>)
     e28:	6ddb      	ldr	r3, [r3, #92]	; 0x5c
     e2a:	b103      	cbz	r3, e2e <IRQ023_Handler+0xa>
    {
        IrqHandler[Int023_IRQn]();
     e2c:	4798      	blx	r3
    }
}
     e2e:	bd08      	pop	{r3, pc}
     e30:	1fff8004 	svcne	0x00ff8004

00000e34 <IRQ024_Handler>:
 *******************************************************************************
 ** \brief Int No.024 IRQ handler
 **
 ******************************************************************************/
void IRQ024_Handler(void)
{
     e34:	b508      	push	{r3, lr}
    if (NULL != IrqHandler[Int024_IRQn])
     e36:	4b02      	ldr	r3, [pc, #8]	; (e40 <IRQ024_Handler+0xc>)
     e38:	6e1b      	ldr	r3, [r3, #96]	; 0x60
     e3a:	b103      	cbz	r3, e3e <IRQ024_Handler+0xa>
    {
        IrqHandler[Int024_IRQn]();
     e3c:	4798      	blx	r3
    }
}
     e3e:	bd08      	pop	{r3, pc}
     e40:	1fff8004 	svcne	0x00ff8004

00000e44 <IRQ025_Handler>:
 *******************************************************************************
 ** \brief Int No.025 IRQ handler
 **
 ******************************************************************************/
void IRQ025_Handler(void)
{
     e44:	b508      	push	{r3, lr}
    if (NULL != IrqHandler[Int025_IRQn])
     e46:	4b02      	ldr	r3, [pc, #8]	; (e50 <IRQ025_Handler+0xc>)
     e48:	6e5b      	ldr	r3, [r3, #100]	; 0x64
     e4a:	b103      	cbz	r3, e4e <IRQ025_Handler+0xa>
    {
        IrqHandler[Int025_IRQn]();
     e4c:	4798      	blx	r3
    }
}
     e4e:	bd08      	pop	{r3, pc}
     e50:	1fff8004 	svcne	0x00ff8004

00000e54 <IRQ026_Handler>:
 *******************************************************************************
 ** \brief Int No.026 IRQ handler
 **
 ******************************************************************************/
void IRQ026_Handler(void)
{
     e54:	b508      	push	{r3, lr}
    if (NULL != IrqHandler[Int026_IRQn])
     e56:	4b02      	ldr	r3, [pc, #8]	; (e60 <IRQ026_Handler+0xc>)
     e58:	6e9b      	ldr	r3, [r3, #104]	; 0x68
     e5a:	b103      	cbz	r3, e5e <IRQ026_Handler+0xa>
    {
        IrqHandler[Int026_IRQn]();
     e5c:	4798      	blx	r3
    }
}
     e5e:	bd08      	pop	{r3, pc}
     e60:	1fff8004 	svcne	0x00ff8004

00000e64 <IRQ027_Handler>:
 *******************************************************************************
 ** \brief Int No.027 IRQ handler
 **
 ******************************************************************************/
void IRQ027_Handler(void)
{
     e64:	b508      	push	{r3, lr}
    if (NULL != IrqHandler[Int027_IRQn])
     e66:	4b02      	ldr	r3, [pc, #8]	; (e70 <IRQ027_Handler+0xc>)
     e68:	6edb      	ldr	r3, [r3, #108]	; 0x6c
     e6a:	b103      	cbz	r3, e6e <IRQ027_Handler+0xa>
    {
        IrqHandler[Int027_IRQn]();
     e6c:	4798      	blx	r3
    }
}
     e6e:	bd08      	pop	{r3, pc}
     e70:	1fff8004 	svcne	0x00ff8004

00000e74 <IRQ028_Handler>:
 *******************************************************************************
 ** \brief Int No.028 IRQ handler
 **
 ******************************************************************************/
void IRQ028_Handler(void)
{
     e74:	b508      	push	{r3, lr}
    if (NULL != IrqHandler[Int028_IRQn])
     e76:	4b02      	ldr	r3, [pc, #8]	; (e80 <IRQ028_Handler+0xc>)
     e78:	6f1b      	ldr	r3, [r3, #112]	; 0x70
     e7a:	b103      	cbz	r3, e7e <IRQ028_Handler+0xa>
    {
        IrqHandler[Int028_IRQn]();
     e7c:	4798      	blx	r3
    }
}
     e7e:	bd08      	pop	{r3, pc}
     e80:	1fff8004 	svcne	0x00ff8004

00000e84 <IRQ029_Handler>:
 *******************************************************************************
 ** \brief Int No.029 IRQ handler
 **
 ******************************************************************************/
void IRQ029_Handler(void)
{
     e84:	b508      	push	{r3, lr}
    if (NULL != IrqHandler[Int029_IRQn])
     e86:	4b02      	ldr	r3, [pc, #8]	; (e90 <IRQ029_Handler+0xc>)
     e88:	6f5b      	ldr	r3, [r3, #116]	; 0x74
     e8a:	b103      	cbz	r3, e8e <IRQ029_Handler+0xa>
    {
        IrqHandler[Int029_IRQn]();
     e8c:	4798      	blx	r3
    }
}
     e8e:	bd08      	pop	{r3, pc}
     e90:	1fff8004 	svcne	0x00ff8004

00000e94 <IRQ030_Handler>:
 *******************************************************************************
 ** \brief Int No.030 IRQ handler
 **
 ******************************************************************************/
void IRQ030_Handler(void)
{
     e94:	b508      	push	{r3, lr}
    if (NULL != IrqHandler[Int030_IRQn])
     e96:	4b02      	ldr	r3, [pc, #8]	; (ea0 <IRQ030_Handler+0xc>)
     e98:	6f9b      	ldr	r3, [r3, #120]	; 0x78
     e9a:	b103      	cbz	r3, e9e <IRQ030_Handler+0xa>
    {
        IrqHandler[Int030_IRQn]();
     e9c:	4798      	blx	r3
    }
}
     e9e:	bd08      	pop	{r3, pc}
     ea0:	1fff8004 	svcne	0x00ff8004

00000ea4 <IRQ031_Handler>:
 *******************************************************************************
 ** \brief Int No.031 IRQ handler
 **
 ******************************************************************************/
void IRQ031_Handler(void)
{
     ea4:	b508      	push	{r3, lr}
    if (NULL != IrqHandler[Int031_IRQn])
     ea6:	4b02      	ldr	r3, [pc, #8]	; (eb0 <IRQ031_Handler+0xc>)
     ea8:	6fdb      	ldr	r3, [r3, #124]	; 0x7c
     eaa:	b103      	cbz	r3, eae <IRQ031_Handler+0xa>
    {
        IrqHandler[Int031_IRQn]();
     eac:	4798      	blx	r3
    }
}
     eae:	bd08      	pop	{r3, pc}
     eb0:	1fff8004 	svcne	0x00ff8004

00000eb4 <IRQ032_Handler>:
 *******************************************************************************
 ** \brief Int No.032 IRQ handler
 **
 ******************************************************************************/
void IRQ032_Handler(void)
{
     eb4:	b508      	push	{r3, lr}
    if (NULL != IrqHandler[Int032_IRQn])
     eb6:	4b03      	ldr	r3, [pc, #12]	; (ec4 <IRQ032_Handler+0x10>)
     eb8:	f8d3 3080 	ldr.w	r3, [r3, #128]	; 0x80
     ebc:	b103      	cbz	r3, ec0 <IRQ032_Handler+0xc>
    {
        IrqHandler[Int032_IRQn]();
     ebe:	4798      	blx	r3
    }
}
     ec0:	bd08      	pop	{r3, pc}
     ec2:	bf00      	nop
     ec4:	1fff8004 	svcne	0x00ff8004

00000ec8 <IRQ033_Handler>:
 *******************************************************************************
 ** \brief Int No.033 IRQ handler
 **
 ******************************************************************************/
void IRQ033_Handler(void)
{
     ec8:	b508      	push	{r3, lr}
    if (NULL != IrqHandler[Int033_IRQn])
     eca:	4b03      	ldr	r3, [pc, #12]	; (ed8 <IRQ033_Handler+0x10>)
     ecc:	f8d3 3084 	ldr.w	r3, [r3, #132]	; 0x84
     ed0:	b103      	cbz	r3, ed4 <IRQ033_Handler+0xc>
    {
        IrqHandler[Int033_IRQn]();
     ed2:	4798      	blx	r3
    }
}
     ed4:	bd08      	pop	{r3, pc}
     ed6:	bf00      	nop
     ed8:	1fff8004 	svcne	0x00ff8004

00000edc <IRQ034_Handler>:
 *******************************************************************************
 ** \brief Int No.034 IRQ handler
 **
 ******************************************************************************/
void IRQ034_Handler(void)
{
     edc:	b508      	push	{r3, lr}
    if (NULL != IrqHandler[Int034_IRQn])
     ede:	4b03      	ldr	r3, [pc, #12]	; (eec <IRQ034_Handler+0x10>)
     ee0:	f8d3 3088 	ldr.w	r3, [r3, #136]	; 0x88
     ee4:	b103      	cbz	r3, ee8 <IRQ034_Handler+0xc>
    {
        IrqHandler[Int034_IRQn]();
     ee6:	4798      	blx	r3
    }
}
     ee8:	bd08      	pop	{r3, pc}
     eea:	bf00      	nop
     eec:	1fff8004 	svcne	0x00ff8004

00000ef0 <IRQ035_Handler>:
 *******************************************************************************
 ** \brief Int No.035 IRQ handler
 **
 ******************************************************************************/
void IRQ035_Handler(void)
{
     ef0:	b508      	push	{r3, lr}
    if (NULL != IrqHandler[Int035_IRQn])
     ef2:	4b03      	ldr	r3, [pc, #12]	; (f00 <IRQ035_Handler+0x10>)
     ef4:	f8d3 308c 	ldr.w	r3, [r3, #140]	; 0x8c
     ef8:	b103      	cbz	r3, efc <IRQ035_Handler+0xc>
    {
        IrqHandler[Int035_IRQn]();
     efa:	4798      	blx	r3
    }
}
     efc:	bd08      	pop	{r3, pc}
     efe:	bf00      	nop
     f00:	1fff8004 	svcne	0x00ff8004

00000f04 <IRQ036_Handler>:
 *******************************************************************************
 ** \brief Int No.036 IRQ handler
 **
 ******************************************************************************/
void IRQ036_Handler(void)
{
     f04:	b508      	push	{r3, lr}
    if (NULL != IrqHandler[Int036_IRQn])
     f06:	4b03      	ldr	r3, [pc, #12]	; (f14 <IRQ036_Handler+0x10>)
     f08:	f8d3 3090 	ldr.w	r3, [r3, #144]	; 0x90
     f0c:	b103      	cbz	r3, f10 <IRQ036_Handler+0xc>
    {
        IrqHandler[Int036_IRQn]();
     f0e:	4798      	blx	r3
    }
}
     f10:	bd08      	pop	{r3, pc}
     f12:	bf00      	nop
     f14:	1fff8004 	svcne	0x00ff8004

00000f18 <IRQ037_Handler>:
 *******************************************************************************
 ** \brief Int No.037 IRQ handler
 **
 ******************************************************************************/
void IRQ037_Handler(void)
{
     f18:	b508      	push	{r3, lr}
    if (NULL != IrqHandler[Int037_IRQn])
     f1a:	4b03      	ldr	r3, [pc, #12]	; (f28 <IRQ037_Handler+0x10>)
     f1c:	f8d3 3094 	ldr.w	r3, [r3, #148]	; 0x94
     f20:	b103      	cbz	r3, f24 <IRQ037_Handler+0xc>
    {
        IrqHandler[Int037_IRQn]();
     f22:	4798      	blx	r3
    }
}
     f24:	bd08      	pop	{r3, pc}
     f26:	bf00      	nop
     f28:	1fff8004 	svcne	0x00ff8004

00000f2c <IRQ038_Handler>:
 *******************************************************************************
 ** \brief Int No.038 IRQ handler
 **
 ******************************************************************************/
void IRQ038_Handler(void)
{
     f2c:	b508      	push	{r3, lr}
    if (NULL != IrqHandler[Int038_IRQn])
     f2e:	4b03      	ldr	r3, [pc, #12]	; (f3c <IRQ038_Handler+0x10>)
     f30:	f8d3 3098 	ldr.w	r3, [r3, #152]	; 0x98
     f34:	b103      	cbz	r3, f38 <IRQ038_Handler+0xc>
    {
        IrqHandler[Int038_IRQn]();
     f36:	4798      	blx	r3
    }
}
     f38:	bd08      	pop	{r3, pc}
     f3a:	bf00      	nop
     f3c:	1fff8004 	svcne	0x00ff8004

00000f40 <IRQ039_Handler>:
 *******************************************************************************
 ** \brief Int No.039 IRQ handler
 **
 ******************************************************************************/
void IRQ039_Handler(void)
{
     f40:	b508      	push	{r3, lr}
    if (NULL != IrqHandler[Int039_IRQn])
     f42:	4b03      	ldr	r3, [pc, #12]	; (f50 <IRQ039_Handler+0x10>)
     f44:	f8d3 309c 	ldr.w	r3, [r3, #156]	; 0x9c
     f48:	b103      	cbz	r3, f4c <IRQ039_Handler+0xc>
    {
        IrqHandler[Int039_IRQn]();
     f4a:	4798      	blx	r3
    }
}
     f4c:	bd08      	pop	{r3, pc}
     f4e:	bf00      	nop
     f50:	1fff8004 	svcne	0x00ff8004

00000f54 <IRQ040_Handler>:
 *******************************************************************************
 ** \brief Int No.040 IRQ handler
 **
 ******************************************************************************/
void IRQ040_Handler(void)
{
     f54:	b508      	push	{r3, lr}
    if (NULL != IrqHandler[Int040_IRQn])
     f56:	4b03      	ldr	r3, [pc, #12]	; (f64 <IRQ040_Handler+0x10>)
     f58:	f8d3 30a0 	ldr.w	r3, [r3, #160]	; 0xa0
     f5c:	b103      	cbz	r3, f60 <IRQ040_Handler+0xc>
    {
        IrqHandler[Int040_IRQn]();
     f5e:	4798      	blx	r3
    }
}
     f60:	bd08      	pop	{r3, pc}
     f62:	bf00      	nop
     f64:	1fff8004 	svcne	0x00ff8004

00000f68 <IRQ041_Handler>:
 *******************************************************************************
 ** \brief Int No.041 IRQ handler
 **
 ******************************************************************************/
void IRQ041_Handler(void)
{
     f68:	b508      	push	{r3, lr}
    if (NULL != IrqHandler[Int041_IRQn])
     f6a:	4b03      	ldr	r3, [pc, #12]	; (f78 <IRQ041_Handler+0x10>)
     f6c:	f8d3 30a4 	ldr.w	r3, [r3, #164]	; 0xa4
     f70:	b103      	cbz	r3, f74 <IRQ041_Handler+0xc>
    {
        IrqHandler[Int041_IRQn]();
     f72:	4798      	blx	r3
    }
}
     f74:	bd08      	pop	{r3, pc}
     f76:	bf00      	nop
     f78:	1fff8004 	svcne	0x00ff8004

00000f7c <IRQ042_Handler>:
 *******************************************************************************
 ** \brief Int No.042 IRQ handler
 **
 ******************************************************************************/
void IRQ042_Handler(void)
{
     f7c:	b508      	push	{r3, lr}
    if (NULL != IrqHandler[Int042_IRQn])
     f7e:	4b03      	ldr	r3, [pc, #12]	; (f8c <IRQ042_Handler+0x10>)
     f80:	f8d3 30a8 	ldr.w	r3, [r3, #168]	; 0xa8
     f84:	b103      	cbz	r3, f88 <IRQ042_Handler+0xc>
    {
        IrqHandler[Int042_IRQn]();
     f86:	4798      	blx	r3
    }
}
     f88:	bd08      	pop	{r3, pc}
     f8a:	bf00      	nop
     f8c:	1fff8004 	svcne	0x00ff8004

00000f90 <IRQ043_Handler>:
 *******************************************************************************
 ** \brief Int No.043 IRQ handler
 **
 ******************************************************************************/
void IRQ043_Handler(void)
{
     f90:	b508      	push	{r3, lr}
    if (NULL != IrqHandler[Int043_IRQn])
     f92:	4b03      	ldr	r3, [pc, #12]	; (fa0 <IRQ043_Handler+0x10>)
     f94:	f8d3 30ac 	ldr.w	r3, [r3, #172]	; 0xac
     f98:	b103      	cbz	r3, f9c <IRQ043_Handler+0xc>
    {
        IrqHandler[Int043_IRQn]();
     f9a:	4798      	blx	r3
    }
}
     f9c:	bd08      	pop	{r3, pc}
     f9e:	bf00      	nop
     fa0:	1fff8004 	svcne	0x00ff8004

00000fa4 <IRQ044_Handler>:
 *******************************************************************************
 ** \brief Int No.044 IRQ handler
 **
 ******************************************************************************/
void IRQ044_Handler(void)
{
     fa4:	b508      	push	{r3, lr}
    if (NULL != IrqHandler[Int044_IRQn])
     fa6:	4b03      	ldr	r3, [pc, #12]	; (fb4 <IRQ044_Handler+0x10>)
     fa8:	f8d3 30b0 	ldr.w	r3, [r3, #176]	; 0xb0
     fac:	b103      	cbz	r3, fb0 <IRQ044_Handler+0xc>
    {
        IrqHandler[Int044_IRQn]();
     fae:	4798      	blx	r3
    }
}
     fb0:	bd08      	pop	{r3, pc}
     fb2:	bf00      	nop
     fb4:	1fff8004 	svcne	0x00ff8004

00000fb8 <IRQ045_Handler>:
 *******************************************************************************
 ** \brief Int No.045 IRQ handler
 **
 ******************************************************************************/
void IRQ045_Handler(void)
{
     fb8:	b508      	push	{r3, lr}
    if (NULL != IrqHandler[Int045_IRQn])
     fba:	4b03      	ldr	r3, [pc, #12]	; (fc8 <IRQ045_Handler+0x10>)
     fbc:	f8d3 30b4 	ldr.w	r3, [r3, #180]	; 0xb4
     fc0:	b103      	cbz	r3, fc4 <IRQ045_Handler+0xc>
    {
        IrqHandler[Int045_IRQn]();
     fc2:	4798      	blx	r3
    }
}
     fc4:	bd08      	pop	{r3, pc}
     fc6:	bf00      	nop
     fc8:	1fff8004 	svcne	0x00ff8004

00000fcc <IRQ046_Handler>:
 *******************************************************************************
 ** \brief Int No.046 IRQ handler
 **
 ******************************************************************************/
void IRQ046_Handler(void)
{
     fcc:	b508      	push	{r3, lr}
    if (NULL != IrqHandler[Int046_IRQn])
     fce:	4b03      	ldr	r3, [pc, #12]	; (fdc <IRQ046_Handler+0x10>)
     fd0:	f8d3 30b8 	ldr.w	r3, [r3, #184]	; 0xb8
     fd4:	b103      	cbz	r3, fd8 <IRQ046_Handler+0xc>
    {
        IrqHandler[Int046_IRQn]();
     fd6:	4798      	blx	r3
    }
}
     fd8:	bd08      	pop	{r3, pc}
     fda:	bf00      	nop
     fdc:	1fff8004 	svcne	0x00ff8004

00000fe0 <IRQ047_Handler>:
 *******************************************************************************
 ** \brief Int No.047 IRQ handler
 **
 ******************************************************************************/
void IRQ047_Handler(void)
{
     fe0:	b508      	push	{r3, lr}
    if (NULL != IrqHandler[Int047_IRQn])
     fe2:	4b03      	ldr	r3, [pc, #12]	; (ff0 <IRQ047_Handler+0x10>)
     fe4:	f8d3 30bc 	ldr.w	r3, [r3, #188]	; 0xbc
     fe8:	b103      	cbz	r3, fec <IRQ047_Handler+0xc>
    {
        IrqHandler[Int047_IRQn]();
     fea:	4798      	blx	r3
    }
}
     fec:	bd08      	pop	{r3, pc}
     fee:	bf00      	nop
     ff0:	1fff8004 	svcne	0x00ff8004

00000ff4 <IRQ048_Handler>:
 *******************************************************************************
 ** \brief Int No.048 IRQ handler
 **
 ******************************************************************************/
void IRQ048_Handler(void)
{
     ff4:	b508      	push	{r3, lr}
    if (NULL != IrqHandler[Int048_IRQn])
     ff6:	4b03      	ldr	r3, [pc, #12]	; (1004 <IRQ048_Handler+0x10>)
     ff8:	f8d3 30c0 	ldr.w	r3, [r3, #192]	; 0xc0
     ffc:	b103      	cbz	r3, 1000 <IRQ048_Handler+0xc>
    {
        IrqHandler[Int048_IRQn]();
     ffe:	4798      	blx	r3
    }
}
    1000:	bd08      	pop	{r3, pc}
    1002:	bf00      	nop
    1004:	1fff8004 	svcne	0x00ff8004

00001008 <IRQ049_Handler>:
 *******************************************************************************
 ** \brief Int No.049 IRQ handler
 **
 ******************************************************************************/
void IRQ049_Handler(void)
{
    1008:	b508      	push	{r3, lr}
    if (NULL != IrqHandler[Int049_IRQn])
    100a:	4b03      	ldr	r3, [pc, #12]	; (1018 <IRQ049_Handler+0x10>)
    100c:	f8d3 30c4 	ldr.w	r3, [r3, #196]	; 0xc4
    1010:	b103      	cbz	r3, 1014 <IRQ049_Handler+0xc>
    {
        IrqHandler[Int049_IRQn]();
    1012:	4798      	blx	r3
    }
}
    1014:	bd08      	pop	{r3, pc}
    1016:	bf00      	nop
    1018:	1fff8004 	svcne	0x00ff8004

0000101c <IRQ050_Handler>:
 *******************************************************************************
 ** \brief Int No.050 IRQ handler
 **
 ******************************************************************************/
void IRQ050_Handler(void)
{
    101c:	b508      	push	{r3, lr}
    if (NULL != IrqHandler[Int050_IRQn])
    101e:	4b03      	ldr	r3, [pc, #12]	; (102c <IRQ050_Handler+0x10>)
    1020:	f8d3 30c8 	ldr.w	r3, [r3, #200]	; 0xc8
    1024:	b103      	cbz	r3, 1028 <IRQ050_Handler+0xc>
    {
        IrqHandler[Int050_IRQn]();
    1026:	4798      	blx	r3
    }
}
    1028:	bd08      	pop	{r3, pc}
    102a:	bf00      	nop
    102c:	1fff8004 	svcne	0x00ff8004

00001030 <IRQ051_Handler>:
 *******************************************************************************
 ** \brief Int No.051 IRQ handler
 **
 ******************************************************************************/
void IRQ051_Handler(void)
{
    1030:	b508      	push	{r3, lr}
    if (NULL != IrqHandler[Int051_IRQn])
    1032:	4b03      	ldr	r3, [pc, #12]	; (1040 <IRQ051_Handler+0x10>)
    1034:	f8d3 30cc 	ldr.w	r3, [r3, #204]	; 0xcc
    1038:	b103      	cbz	r3, 103c <IRQ051_Handler+0xc>
    {
        IrqHandler[Int051_IRQn]();
    103a:	4798      	blx	r3
    }
}
    103c:	bd08      	pop	{r3, pc}
    103e:	bf00      	nop
    1040:	1fff8004 	svcne	0x00ff8004

00001044 <IRQ052_Handler>:
 *******************************************************************************
 ** \brief Int No.052 IRQ handler
 **
 ******************************************************************************/
void IRQ052_Handler(void)
{
    1044:	b508      	push	{r3, lr}
    if (NULL != IrqHandler[Int052_IRQn])
    1046:	4b03      	ldr	r3, [pc, #12]	; (1054 <IRQ052_Handler+0x10>)
    1048:	f8d3 30d0 	ldr.w	r3, [r3, #208]	; 0xd0
    104c:	b103      	cbz	r3, 1050 <IRQ052_Handler+0xc>
    {
        IrqHandler[Int052_IRQn]();
    104e:	4798      	blx	r3
    }
}
    1050:	bd08      	pop	{r3, pc}
    1052:	bf00      	nop
    1054:	1fff8004 	svcne	0x00ff8004

00001058 <IRQ053_Handler>:
 *******************************************************************************
 ** \brief Int No.053 IRQ handler
 **
 ******************************************************************************/
void IRQ053_Handler(void)
{
    1058:	b508      	push	{r3, lr}
    if (NULL != IrqHandler[Int053_IRQn])
    105a:	4b03      	ldr	r3, [pc, #12]	; (1068 <IRQ053_Handler+0x10>)
    105c:	f8d3 30d4 	ldr.w	r3, [r3, #212]	; 0xd4
    1060:	b103      	cbz	r3, 1064 <IRQ053_Handler+0xc>
    {
        IrqHandler[Int053_IRQn]();
    1062:	4798      	blx	r3
    }
}
    1064:	bd08      	pop	{r3, pc}
    1066:	bf00      	nop
    1068:	1fff8004 	svcne	0x00ff8004

0000106c <IRQ054_Handler>:
 *******************************************************************************
 ** \brief Int No.054 IRQ handler
 **
 ******************************************************************************/
void IRQ054_Handler(void)
{
    106c:	b508      	push	{r3, lr}
    if (NULL != IrqHandler[Int054_IRQn])
    106e:	4b03      	ldr	r3, [pc, #12]	; (107c <IRQ054_Handler+0x10>)
    1070:	f8d3 30d8 	ldr.w	r3, [r3, #216]	; 0xd8
    1074:	b103      	cbz	r3, 1078 <IRQ054_Handler+0xc>
    {
        IrqHandler[Int054_IRQn]();
    1076:	4798      	blx	r3
    }
}
    1078:	bd08      	pop	{r3, pc}
    107a:	bf00      	nop
    107c:	1fff8004 	svcne	0x00ff8004

00001080 <IRQ055_Handler>:
 *******************************************************************************
 ** \brief Int No.055 IRQ handler
 **
 ******************************************************************************/
void IRQ055_Handler(void)
{
    1080:	b508      	push	{r3, lr}
    if (NULL != IrqHandler[Int055_IRQn])
    1082:	4b03      	ldr	r3, [pc, #12]	; (1090 <IRQ055_Handler+0x10>)
    1084:	f8d3 30dc 	ldr.w	r3, [r3, #220]	; 0xdc
    1088:	b103      	cbz	r3, 108c <IRQ055_Handler+0xc>
    {
        IrqHandler[Int055_IRQn]();
    108a:	4798      	blx	r3
    }
}
    108c:	bd08      	pop	{r3, pc}
    108e:	bf00      	nop
    1090:	1fff8004 	svcne	0x00ff8004

00001094 <IRQ056_Handler>:
 *******************************************************************************
 ** \brief Int No.056 IRQ handler
 **
 ******************************************************************************/
void IRQ056_Handler(void)
{
    1094:	b508      	push	{r3, lr}
    if (NULL != IrqHandler[Int056_IRQn])
    1096:	4b03      	ldr	r3, [pc, #12]	; (10a4 <IRQ056_Handler+0x10>)
    1098:	f8d3 30e0 	ldr.w	r3, [r3, #224]	; 0xe0
    109c:	b103      	cbz	r3, 10a0 <IRQ056_Handler+0xc>
    {
        IrqHandler[Int056_IRQn]();
    109e:	4798      	blx	r3
    }
}
    10a0:	bd08      	pop	{r3, pc}
    10a2:	bf00      	nop
    10a4:	1fff8004 	svcne	0x00ff8004

000010a8 <IRQ057_Handler>:
 *******************************************************************************
 ** \brief Int No.057 IRQ handler
 **
 ******************************************************************************/
void IRQ057_Handler(void)
{
    10a8:	b508      	push	{r3, lr}
    if (NULL != IrqHandler[Int057_IRQn])
    10aa:	4b03      	ldr	r3, [pc, #12]	; (10b8 <IRQ057_Handler+0x10>)
    10ac:	f8d3 30e4 	ldr.w	r3, [r3, #228]	; 0xe4
    10b0:	b103      	cbz	r3, 10b4 <IRQ057_Handler+0xc>
    {
        IrqHandler[Int057_IRQn]();
    10b2:	4798      	blx	r3
    }
}
    10b4:	bd08      	pop	{r3, pc}
    10b6:	bf00      	nop
    10b8:	1fff8004 	svcne	0x00ff8004

000010bc <IRQ058_Handler>:
 *******************************************************************************
 ** \brief Int No.058 IRQ handler
 **
 ******************************************************************************/
void IRQ058_Handler(void)
{
    10bc:	b508      	push	{r3, lr}
    if (NULL != IrqHandler[Int058_IRQn])
    10be:	4b03      	ldr	r3, [pc, #12]	; (10cc <IRQ058_Handler+0x10>)
    10c0:	f8d3 30e8 	ldr.w	r3, [r3, #232]	; 0xe8
    10c4:	b103      	cbz	r3, 10c8 <IRQ058_Handler+0xc>
    {
        IrqHandler[Int058_IRQn]();
    10c6:	4798      	blx	r3
    }
}
    10c8:	bd08      	pop	{r3, pc}
    10ca:	bf00      	nop
    10cc:	1fff8004 	svcne	0x00ff8004

000010d0 <IRQ059_Handler>:
 *******************************************************************************
 ** \brief Int No.059 IRQ handler
 **
 ******************************************************************************/
void IRQ059_Handler(void)
{
    10d0:	b508      	push	{r3, lr}
    if (NULL != IrqHandler[Int059_IRQn])
    10d2:	4b03      	ldr	r3, [pc, #12]	; (10e0 <IRQ059_Handler+0x10>)
    10d4:	f8d3 30ec 	ldr.w	r3, [r3, #236]	; 0xec
    10d8:	b103      	cbz	r3, 10dc <IRQ059_Handler+0xc>
    {
        IrqHandler[Int059_IRQn]();
    10da:	4798      	blx	r3
    }
}
    10dc:	bd08      	pop	{r3, pc}
    10de:	bf00      	nop
    10e0:	1fff8004 	svcne	0x00ff8004

000010e4 <IRQ060_Handler>:
 *******************************************************************************
 ** \brief Int No.060 IRQ handler
 **
 ******************************************************************************/
void IRQ060_Handler(void)
{
    10e4:	b508      	push	{r3, lr}
    if (NULL != IrqHandler[Int060_IRQn])
    10e6:	4b03      	ldr	r3, [pc, #12]	; (10f4 <IRQ060_Handler+0x10>)
    10e8:	f8d3 30f0 	ldr.w	r3, [r3, #240]	; 0xf0
    10ec:	b103      	cbz	r3, 10f0 <IRQ060_Handler+0xc>
    {
        IrqHandler[Int060_IRQn]();
    10ee:	4798      	blx	r3
    }
}
    10f0:	bd08      	pop	{r3, pc}
    10f2:	bf00      	nop
    10f4:	1fff8004 	svcne	0x00ff8004

000010f8 <IRQ061_Handler>:
 *******************************************************************************
 ** \brief Int No.061 IRQ handler
 **
 ******************************************************************************/
void IRQ061_Handler(void)
{
    10f8:	b508      	push	{r3, lr}
    if (NULL != IrqHandler[Int061_IRQn])
    10fa:	4b03      	ldr	r3, [pc, #12]	; (1108 <IRQ061_Handler+0x10>)
    10fc:	f8d3 30f4 	ldr.w	r3, [r3, #244]	; 0xf4
    1100:	b103      	cbz	r3, 1104 <IRQ061_Handler+0xc>
    {
        IrqHandler[Int061_IRQn]();
    1102:	4798      	blx	r3
    }
}
    1104:	bd08      	pop	{r3, pc}
    1106:	bf00      	nop
    1108:	1fff8004 	svcne	0x00ff8004

0000110c <IRQ062_Handler>:
 *******************************************************************************
 ** \brief Int No.062 IRQ handler
 **
 ******************************************************************************/
void IRQ062_Handler(void)
{
    110c:	b508      	push	{r3, lr}
    if (NULL != IrqHandler[Int062_IRQn])
    110e:	4b03      	ldr	r3, [pc, #12]	; (111c <IRQ062_Handler+0x10>)
    1110:	f8d3 30f8 	ldr.w	r3, [r3, #248]	; 0xf8
    1114:	b103      	cbz	r3, 1118 <IRQ062_Handler+0xc>
    {
        IrqHandler[Int062_IRQn]();
    1116:	4798      	blx	r3
    }
}
    1118:	bd08      	pop	{r3, pc}
    111a:	bf00      	nop
    111c:	1fff8004 	svcne	0x00ff8004

00001120 <IRQ063_Handler>:
 *******************************************************************************
 ** \brief Int No.063 IRQ handler
 **
 ******************************************************************************/
void IRQ063_Handler(void)
{
    1120:	b508      	push	{r3, lr}
    if (NULL != IrqHandler[Int063_IRQn])
    1122:	4b03      	ldr	r3, [pc, #12]	; (1130 <IRQ063_Handler+0x10>)
    1124:	f8d3 30fc 	ldr.w	r3, [r3, #252]	; 0xfc
    1128:	b103      	cbz	r3, 112c <IRQ063_Handler+0xc>
    {
        IrqHandler[Int063_IRQn]();
    112a:	4798      	blx	r3
    }
}
    112c:	bd08      	pop	{r3, pc}
    112e:	bf00      	nop
    1130:	1fff8004 	svcne	0x00ff8004

00001134 <IRQ064_Handler>:
 *******************************************************************************
 ** \brief Int No.064 IRQ handler
 **
 ******************************************************************************/
void IRQ064_Handler(void)
{
    1134:	b508      	push	{r3, lr}
    if (NULL != IrqHandler[Int064_IRQn])
    1136:	4b03      	ldr	r3, [pc, #12]	; (1144 <IRQ064_Handler+0x10>)
    1138:	f8d3 3100 	ldr.w	r3, [r3, #256]	; 0x100
    113c:	b103      	cbz	r3, 1140 <IRQ064_Handler+0xc>
    {
        IrqHandler[Int064_IRQn]();
    113e:	4798      	blx	r3
    }
}
    1140:	bd08      	pop	{r3, pc}
    1142:	bf00      	nop
    1144:	1fff8004 	svcne	0x00ff8004

00001148 <IRQ065_Handler>:
 *******************************************************************************
 ** \brief Int No.065 IRQ handler
 **
 ******************************************************************************/
void IRQ065_Handler(void)
{
    1148:	b508      	push	{r3, lr}
    if (NULL != IrqHandler[Int065_IRQn])
    114a:	4b03      	ldr	r3, [pc, #12]	; (1158 <IRQ065_Handler+0x10>)
    114c:	f8d3 3104 	ldr.w	r3, [r3, #260]	; 0x104
    1150:	b103      	cbz	r3, 1154 <IRQ065_Handler+0xc>
    {
        IrqHandler[Int065_IRQn]();
    1152:	4798      	blx	r3
    }
}
    1154:	bd08      	pop	{r3, pc}
    1156:	bf00      	nop
    1158:	1fff8004 	svcne	0x00ff8004

0000115c <IRQ066_Handler>:
 *******************************************************************************
 ** \brief Int No.066 IRQ handler
 **
 ******************************************************************************/
void IRQ066_Handler(void)
{
    115c:	b508      	push	{r3, lr}
    if (NULL != IrqHandler[Int066_IRQn])
    115e:	4b03      	ldr	r3, [pc, #12]	; (116c <IRQ066_Handler+0x10>)
    1160:	f8d3 3108 	ldr.w	r3, [r3, #264]	; 0x108
    1164:	b103      	cbz	r3, 1168 <IRQ066_Handler+0xc>
    {
        IrqHandler[Int066_IRQn]();
    1166:	4798      	blx	r3
    }
}
    1168:	bd08      	pop	{r3, pc}
    116a:	bf00      	nop
    116c:	1fff8004 	svcne	0x00ff8004

00001170 <IRQ067_Handler>:
 *******************************************************************************
 ** \brief Int No.067 IRQ handler
 **
 ******************************************************************************/
void IRQ067_Handler(void)
{
    1170:	b508      	push	{r3, lr}
    if (NULL != IrqHandler[Int067_IRQn])
    1172:	4b03      	ldr	r3, [pc, #12]	; (1180 <IRQ067_Handler+0x10>)
    1174:	f8d3 310c 	ldr.w	r3, [r3, #268]	; 0x10c
    1178:	b103      	cbz	r3, 117c <IRQ067_Handler+0xc>
    {
        IrqHandler[Int067_IRQn]();
    117a:	4798      	blx	r3
    }
}
    117c:	bd08      	pop	{r3, pc}
    117e:	bf00      	nop
    1180:	1fff8004 	svcne	0x00ff8004

00001184 <IRQ068_Handler>:
 *******************************************************************************
 ** \brief Int No.068 IRQ handler
 **
 ******************************************************************************/
void IRQ068_Handler(void)
{
    1184:	b508      	push	{r3, lr}
    if (NULL != IrqHandler[Int068_IRQn])
    1186:	4b03      	ldr	r3, [pc, #12]	; (1194 <IRQ068_Handler+0x10>)
    1188:	f8d3 3110 	ldr.w	r3, [r3, #272]	; 0x110
    118c:	b103      	cbz	r3, 1190 <IRQ068_Handler+0xc>
    {
        IrqHandler[Int068_IRQn]();
    118e:	4798      	blx	r3
    }
}
    1190:	bd08      	pop	{r3, pc}
    1192:	bf00      	nop
    1194:	1fff8004 	svcne	0x00ff8004

00001198 <IRQ069_Handler>:
 *******************************************************************************
 ** \brief Int No.069 IRQ handler
 **
 ******************************************************************************/
void IRQ069_Handler(void)
{
    1198:	b508      	push	{r3, lr}
    if (NULL != IrqHandler[Int069_IRQn])
    119a:	4b03      	ldr	r3, [pc, #12]	; (11a8 <IRQ069_Handler+0x10>)
    119c:	f8d3 3114 	ldr.w	r3, [r3, #276]	; 0x114
    11a0:	b103      	cbz	r3, 11a4 <IRQ069_Handler+0xc>
    {
        IrqHandler[Int069_IRQn]();
    11a2:	4798      	blx	r3
    }
}
    11a4:	bd08      	pop	{r3, pc}
    11a6:	bf00      	nop
    11a8:	1fff8004 	svcne	0x00ff8004

000011ac <IRQ070_Handler>:
 *******************************************************************************
 ** \brief Int No.070 IRQ handler
 **
 ******************************************************************************/
void IRQ070_Handler(void)
{
    11ac:	b508      	push	{r3, lr}
    if (NULL != IrqHandler[Int070_IRQn])
    11ae:	4b03      	ldr	r3, [pc, #12]	; (11bc <IRQ070_Handler+0x10>)
    11b0:	f8d3 3118 	ldr.w	r3, [r3, #280]	; 0x118
    11b4:	b103      	cbz	r3, 11b8 <IRQ070_Handler+0xc>
    {
        IrqHandler[Int070_IRQn]();
    11b6:	4798      	blx	r3
    }
}
    11b8:	bd08      	pop	{r3, pc}
    11ba:	bf00      	nop
    11bc:	1fff8004 	svcne	0x00ff8004

000011c0 <IRQ071_Handler>:
 *******************************************************************************
 ** \brief Int No.071 IRQ handler
 **
 ******************************************************************************/
void IRQ071_Handler(void)
{
    11c0:	b508      	push	{r3, lr}
    if (NULL != IrqHandler[Int071_IRQn])
    11c2:	4b03      	ldr	r3, [pc, #12]	; (11d0 <IRQ071_Handler+0x10>)
    11c4:	f8d3 311c 	ldr.w	r3, [r3, #284]	; 0x11c
    11c8:	b103      	cbz	r3, 11cc <IRQ071_Handler+0xc>
    {
        IrqHandler[Int071_IRQn]();
    11ca:	4798      	blx	r3
    }
}
    11cc:	bd08      	pop	{r3, pc}
    11ce:	bf00      	nop
    11d0:	1fff8004 	svcne	0x00ff8004

000011d4 <IRQ072_Handler>:
 *******************************************************************************
 ** \brief Int No.072 IRQ handler
 **
 ******************************************************************************/
void IRQ072_Handler(void)
{
    11d4:	b508      	push	{r3, lr}
    if (NULL != IrqHandler[Int072_IRQn])
    11d6:	4b03      	ldr	r3, [pc, #12]	; (11e4 <IRQ072_Handler+0x10>)
    11d8:	f8d3 3120 	ldr.w	r3, [r3, #288]	; 0x120
    11dc:	b103      	cbz	r3, 11e0 <IRQ072_Handler+0xc>
    {
        IrqHandler[Int072_IRQn]();
    11de:	4798      	blx	r3
    }
}
    11e0:	bd08      	pop	{r3, pc}
    11e2:	bf00      	nop
    11e4:	1fff8004 	svcne	0x00ff8004

000011e8 <IRQ073_Handler>:
 *******************************************************************************
 ** \brief Int No.073 IRQ handler
 **
 ******************************************************************************/
void IRQ073_Handler(void)
{
    11e8:	b508      	push	{r3, lr}
    if (NULL != IrqHandler[Int073_IRQn])
    11ea:	4b03      	ldr	r3, [pc, #12]	; (11f8 <IRQ073_Handler+0x10>)
    11ec:	f8d3 3124 	ldr.w	r3, [r3, #292]	; 0x124
    11f0:	b103      	cbz	r3, 11f4 <IRQ073_Handler+0xc>
    {
        IrqHandler[Int073_IRQn]();
    11f2:	4798      	blx	r3
    }
}
    11f4:	bd08      	pop	{r3, pc}
    11f6:	bf00      	nop
    11f8:	1fff8004 	svcne	0x00ff8004

000011fc <IRQ074_Handler>:
 *******************************************************************************
 ** \brief Int No.074 IRQ handler
 **
 ******************************************************************************/
void IRQ074_Handler(void)
{
    11fc:	b508      	push	{r3, lr}
    if (NULL != IrqHandler[Int074_IRQn])
    11fe:	4b03      	ldr	r3, [pc, #12]	; (120c <IRQ074_Handler+0x10>)
    1200:	f8d3 3128 	ldr.w	r3, [r3, #296]	; 0x128
    1204:	b103      	cbz	r3, 1208 <IRQ074_Handler+0xc>
    {
        IrqHandler[Int074_IRQn]();
    1206:	4798      	blx	r3
    }
}
    1208:	bd08      	pop	{r3, pc}
    120a:	bf00      	nop
    120c:	1fff8004 	svcne	0x00ff8004

00001210 <IRQ075_Handler>:
 *******************************************************************************
 ** \brief Int No.075 IRQ handler
 **
 ******************************************************************************/
void IRQ075_Handler(void)
{
    1210:	b508      	push	{r3, lr}
    if (NULL != IrqHandler[Int075_IRQn])
    1212:	4b03      	ldr	r3, [pc, #12]	; (1220 <IRQ075_Handler+0x10>)
    1214:	f8d3 312c 	ldr.w	r3, [r3, #300]	; 0x12c
    1218:	b103      	cbz	r3, 121c <IRQ075_Handler+0xc>
    {
        IrqHandler[Int075_IRQn]();
    121a:	4798      	blx	r3
    }
}
    121c:	bd08      	pop	{r3, pc}
    121e:	bf00      	nop
    1220:	1fff8004 	svcne	0x00ff8004

00001224 <IRQ076_Handler>:
 *******************************************************************************
 ** \brief Int No.076 IRQ handler
 **
 ******************************************************************************/
void IRQ076_Handler(void)
{
    1224:	b508      	push	{r3, lr}
    if (NULL != IrqHandler[Int076_IRQn])
    1226:	4b03      	ldr	r3, [pc, #12]	; (1234 <IRQ076_Handler+0x10>)
    1228:	f8d3 3130 	ldr.w	r3, [r3, #304]	; 0x130
    122c:	b103      	cbz	r3, 1230 <IRQ076_Handler+0xc>
    {
        IrqHandler[Int076_IRQn]();
    122e:	4798      	blx	r3
    }
}
    1230:	bd08      	pop	{r3, pc}
    1232:	bf00      	nop
    1234:	1fff8004 	svcne	0x00ff8004

00001238 <IRQ077_Handler>:
 *******************************************************************************
 ** \brief Int No.077 IRQ handler
 **
 ******************************************************************************/
void IRQ077_Handler(void)
{
    1238:	b508      	push	{r3, lr}
    if (NULL != IrqHandler[Int077_IRQn])
    123a:	4b03      	ldr	r3, [pc, #12]	; (1248 <IRQ077_Handler+0x10>)
    123c:	f8d3 3134 	ldr.w	r3, [r3, #308]	; 0x134
    1240:	b103      	cbz	r3, 1244 <IRQ077_Handler+0xc>
    {
        IrqHandler[Int077_IRQn]();
    1242:	4798      	blx	r3
    }
}
    1244:	bd08      	pop	{r3, pc}
    1246:	bf00      	nop
    1248:	1fff8004 	svcne	0x00ff8004

0000124c <IRQ078_Handler>:
 *******************************************************************************
 ** \brief Int No.078 IRQ handler
 **
 ******************************************************************************/
void IRQ078_Handler(void)
{
    124c:	b508      	push	{r3, lr}
    if (NULL != IrqHandler[Int078_IRQn])
    124e:	4b03      	ldr	r3, [pc, #12]	; (125c <IRQ078_Handler+0x10>)
    1250:	f8d3 3138 	ldr.w	r3, [r3, #312]	; 0x138
    1254:	b103      	cbz	r3, 1258 <IRQ078_Handler+0xc>
    {
        IrqHandler[Int078_IRQn]();
    1256:	4798      	blx	r3
    }
}
    1258:	bd08      	pop	{r3, pc}
    125a:	bf00      	nop
    125c:	1fff8004 	svcne	0x00ff8004

00001260 <IRQ079_Handler>:
 *******************************************************************************
 ** \brief Int No.079 IRQ handler
 **
 ******************************************************************************/
void IRQ079_Handler(void)
{
    1260:	b508      	push	{r3, lr}
    if (NULL != IrqHandler[Int079_IRQn])
    1262:	4b03      	ldr	r3, [pc, #12]	; (1270 <IRQ079_Handler+0x10>)
    1264:	f8d3 313c 	ldr.w	r3, [r3, #316]	; 0x13c
    1268:	b103      	cbz	r3, 126c <IRQ079_Handler+0xc>
    {
        IrqHandler[Int079_IRQn]();
    126a:	4798      	blx	r3
    }
}
    126c:	bd08      	pop	{r3, pc}
    126e:	bf00      	nop
    1270:	1fff8004 	svcne	0x00ff8004

00001274 <IRQ080_Handler>:
 *******************************************************************************
 ** \brief Int No.080 IRQ handler
 **
 ******************************************************************************/
void IRQ080_Handler(void)
{
    1274:	b508      	push	{r3, lr}
    if (NULL != IrqHandler[Int080_IRQn])
    1276:	4b03      	ldr	r3, [pc, #12]	; (1284 <IRQ080_Handler+0x10>)
    1278:	f8d3 3140 	ldr.w	r3, [r3, #320]	; 0x140
    127c:	b103      	cbz	r3, 1280 <IRQ080_Handler+0xc>
    {
        IrqHandler[Int080_IRQn]();
    127e:	4798      	blx	r3
    }
}
    1280:	bd08      	pop	{r3, pc}
    1282:	bf00      	nop
    1284:	1fff8004 	svcne	0x00ff8004

00001288 <IRQ081_Handler>:
 *******************************************************************************
 ** \brief Int No.081 IRQ handler
 **
 ******************************************************************************/
void IRQ081_Handler(void)
{
    1288:	b508      	push	{r3, lr}
    if (NULL != IrqHandler[Int081_IRQn])
    128a:	4b03      	ldr	r3, [pc, #12]	; (1298 <IRQ081_Handler+0x10>)
    128c:	f8d3 3144 	ldr.w	r3, [r3, #324]	; 0x144
    1290:	b103      	cbz	r3, 1294 <IRQ081_Handler+0xc>
    {
        IrqHandler[Int081_IRQn]();
    1292:	4798      	blx	r3
    }
}
    1294:	bd08      	pop	{r3, pc}
    1296:	bf00      	nop
    1298:	1fff8004 	svcne	0x00ff8004

0000129c <IRQ082_Handler>:
 *******************************************************************************
 ** \brief Int No.082 IRQ handler
 **
 ******************************************************************************/
void IRQ082_Handler(void)
{
    129c:	b508      	push	{r3, lr}
    if (NULL != IrqHandler[Int082_IRQn])
    129e:	4b03      	ldr	r3, [pc, #12]	; (12ac <IRQ082_Handler+0x10>)
    12a0:	f8d3 3148 	ldr.w	r3, [r3, #328]	; 0x148
    12a4:	b103      	cbz	r3, 12a8 <IRQ082_Handler+0xc>
    {
        IrqHandler[Int082_IRQn]();
    12a6:	4798      	blx	r3
    }
}
    12a8:	bd08      	pop	{r3, pc}
    12aa:	bf00      	nop
    12ac:	1fff8004 	svcne	0x00ff8004

000012b0 <IRQ083_Handler>:
 *******************************************************************************
 ** \brief Int No.083 IRQ handler
 **
 ******************************************************************************/
void IRQ083_Handler(void)
{
    12b0:	b508      	push	{r3, lr}
    if (NULL != IrqHandler[Int083_IRQn])
    12b2:	4b03      	ldr	r3, [pc, #12]	; (12c0 <IRQ083_Handler+0x10>)
    12b4:	f8d3 314c 	ldr.w	r3, [r3, #332]	; 0x14c
    12b8:	b103      	cbz	r3, 12bc <IRQ083_Handler+0xc>
    {
        IrqHandler[Int083_IRQn]();
    12ba:	4798      	blx	r3
    }
}
    12bc:	bd08      	pop	{r3, pc}
    12be:	bf00      	nop
    12c0:	1fff8004 	svcne	0x00ff8004

000012c4 <IRQ084_Handler>:
 *******************************************************************************
 ** \brief Int No.084 IRQ handler
 **
 ******************************************************************************/
void IRQ084_Handler(void)
{
    12c4:	b508      	push	{r3, lr}
    if (NULL != IrqHandler[Int084_IRQn])
    12c6:	4b03      	ldr	r3, [pc, #12]	; (12d4 <IRQ084_Handler+0x10>)
    12c8:	f8d3 3150 	ldr.w	r3, [r3, #336]	; 0x150
    12cc:	b103      	cbz	r3, 12d0 <IRQ084_Handler+0xc>
    {
        IrqHandler[Int084_IRQn]();
    12ce:	4798      	blx	r3
    }
}
    12d0:	bd08      	pop	{r3, pc}
    12d2:	bf00      	nop
    12d4:	1fff8004 	svcne	0x00ff8004

000012d8 <IRQ085_Handler>:
 *******************************************************************************
 ** \brief Int No.085 IRQ handler
 **
 ******************************************************************************/
void IRQ085_Handler(void)
{
    12d8:	b508      	push	{r3, lr}
    if (NULL != IrqHandler[Int085_IRQn])
    12da:	4b03      	ldr	r3, [pc, #12]	; (12e8 <IRQ085_Handler+0x10>)
    12dc:	f8d3 3154 	ldr.w	r3, [r3, #340]	; 0x154
    12e0:	b103      	cbz	r3, 12e4 <IRQ085_Handler+0xc>
    {
        IrqHandler[Int085_IRQn]();
    12e2:	4798      	blx	r3
    }
}
    12e4:	bd08      	pop	{r3, pc}
    12e6:	bf00      	nop
    12e8:	1fff8004 	svcne	0x00ff8004

000012ec <IRQ086_Handler>:
 *******************************************************************************
 ** \brief Int No.086 IRQ handler
 **
 ******************************************************************************/
void IRQ086_Handler(void)
{
    12ec:	b508      	push	{r3, lr}
    if (NULL != IrqHandler[Int086_IRQn])
    12ee:	4b03      	ldr	r3, [pc, #12]	; (12fc <IRQ086_Handler+0x10>)
    12f0:	f8d3 3158 	ldr.w	r3, [r3, #344]	; 0x158
    12f4:	b103      	cbz	r3, 12f8 <IRQ086_Handler+0xc>
    {
        IrqHandler[Int086_IRQn]();
    12f6:	4798      	blx	r3
    }
}
    12f8:	bd08      	pop	{r3, pc}
    12fa:	bf00      	nop
    12fc:	1fff8004 	svcne	0x00ff8004

00001300 <IRQ087_Handler>:
 *******************************************************************************
 ** \brief Int No.087 IRQ handler
 **
 ******************************************************************************/
void IRQ087_Handler(void)
{
    1300:	b508      	push	{r3, lr}
    if (NULL != IrqHandler[Int087_IRQn])
    1302:	4b03      	ldr	r3, [pc, #12]	; (1310 <IRQ087_Handler+0x10>)
    1304:	f8d3 315c 	ldr.w	r3, [r3, #348]	; 0x15c
    1308:	b103      	cbz	r3, 130c <IRQ087_Handler+0xc>
    {
        IrqHandler[Int087_IRQn]();
    130a:	4798      	blx	r3
    }
}
    130c:	bd08      	pop	{r3, pc}
    130e:	bf00      	nop
    1310:	1fff8004 	svcne	0x00ff8004

00001314 <IRQ088_Handler>:
 *******************************************************************************
 ** \brief Int No.088 IRQ handler
 **
 ******************************************************************************/
void IRQ088_Handler(void)
{
    1314:	b508      	push	{r3, lr}
    if (NULL != IrqHandler[Int088_IRQn])
    1316:	4b03      	ldr	r3, [pc, #12]	; (1324 <IRQ088_Handler+0x10>)
    1318:	f8d3 3160 	ldr.w	r3, [r3, #352]	; 0x160
    131c:	b103      	cbz	r3, 1320 <IRQ088_Handler+0xc>
    {
        IrqHandler[Int088_IRQn]();
    131e:	4798      	blx	r3
    }
}
    1320:	bd08      	pop	{r3, pc}
    1322:	bf00      	nop
    1324:	1fff8004 	svcne	0x00ff8004

00001328 <IRQ089_Handler>:
 *******************************************************************************
 ** \brief Int No.089 IRQ handler
 **
 ******************************************************************************/
void IRQ089_Handler(void)
{
    1328:	b508      	push	{r3, lr}
    if (NULL != IrqHandler[Int089_IRQn])
    132a:	4b03      	ldr	r3, [pc, #12]	; (1338 <IRQ089_Handler+0x10>)
    132c:	f8d3 3164 	ldr.w	r3, [r3, #356]	; 0x164
    1330:	b103      	cbz	r3, 1334 <IRQ089_Handler+0xc>
    {
        IrqHandler[Int089_IRQn]();
    1332:	4798      	blx	r3
    }
}
    1334:	bd08      	pop	{r3, pc}
    1336:	bf00      	nop
    1338:	1fff8004 	svcne	0x00ff8004

0000133c <IRQ090_Handler>:
 *******************************************************************************
 ** \brief Int No.090 IRQ handler
 **
 ******************************************************************************/
void IRQ090_Handler(void)
{
    133c:	b508      	push	{r3, lr}
    if (NULL != IrqHandler[Int090_IRQn])
    133e:	4b03      	ldr	r3, [pc, #12]	; (134c <IRQ090_Handler+0x10>)
    1340:	f8d3 3168 	ldr.w	r3, [r3, #360]	; 0x168
    1344:	b103      	cbz	r3, 1348 <IRQ090_Handler+0xc>
    {
        IrqHandler[Int090_IRQn]();
    1346:	4798      	blx	r3
    }
}
    1348:	bd08      	pop	{r3, pc}
    134a:	bf00      	nop
    134c:	1fff8004 	svcne	0x00ff8004

00001350 <IRQ091_Handler>:
 *******************************************************************************
 ** \brief Int No.091 IRQ handler
 **
 ******************************************************************************/
void IRQ091_Handler(void)
{
    1350:	b508      	push	{r3, lr}
    if (NULL != IrqHandler[Int091_IRQn])
    1352:	4b03      	ldr	r3, [pc, #12]	; (1360 <IRQ091_Handler+0x10>)
    1354:	f8d3 316c 	ldr.w	r3, [r3, #364]	; 0x16c
    1358:	b103      	cbz	r3, 135c <IRQ091_Handler+0xc>
    {
        IrqHandler[Int091_IRQn]();
    135a:	4798      	blx	r3
    }
}
    135c:	bd08      	pop	{r3, pc}
    135e:	bf00      	nop
    1360:	1fff8004 	svcne	0x00ff8004

00001364 <IRQ092_Handler>:
 *******************************************************************************
 ** \brief Int No.092 IRQ handler
 **
 ******************************************************************************/
void IRQ092_Handler(void)
{
    1364:	b508      	push	{r3, lr}
    if (NULL != IrqHandler[Int092_IRQn])
    1366:	4b03      	ldr	r3, [pc, #12]	; (1374 <IRQ092_Handler+0x10>)
    1368:	f8d3 3170 	ldr.w	r3, [r3, #368]	; 0x170
    136c:	b103      	cbz	r3, 1370 <IRQ092_Handler+0xc>
    {
        IrqHandler[Int092_IRQn]();
    136e:	4798      	blx	r3
    }
}
    1370:	bd08      	pop	{r3, pc}
    1372:	bf00      	nop
    1374:	1fff8004 	svcne	0x00ff8004

00001378 <IRQ093_Handler>:
 *******************************************************************************
 ** \brief Int No.093 IRQ handler
 **
 ******************************************************************************/
void IRQ093_Handler(void)
{
    1378:	b508      	push	{r3, lr}
    if (NULL != IrqHandler[Int093_IRQn])
    137a:	4b03      	ldr	r3, [pc, #12]	; (1388 <IRQ093_Handler+0x10>)
    137c:	f8d3 3174 	ldr.w	r3, [r3, #372]	; 0x174
    1380:	b103      	cbz	r3, 1384 <IRQ093_Handler+0xc>
    {
        IrqHandler[Int093_IRQn]();
    1382:	4798      	blx	r3
    }
}
    1384:	bd08      	pop	{r3, pc}
    1386:	bf00      	nop
    1388:	1fff8004 	svcne	0x00ff8004

0000138c <IRQ094_Handler>:
 *******************************************************************************
 ** \brief Int No.094 IRQ handler
 **
 ******************************************************************************/
void IRQ094_Handler(void)
{
    138c:	b508      	push	{r3, lr}
    if (NULL != IrqHandler[Int094_IRQn])
    138e:	4b03      	ldr	r3, [pc, #12]	; (139c <IRQ094_Handler+0x10>)
    1390:	f8d3 3178 	ldr.w	r3, [r3, #376]	; 0x178
    1394:	b103      	cbz	r3, 1398 <IRQ094_Handler+0xc>
    {
        IrqHandler[Int094_IRQn]();
    1396:	4798      	blx	r3
    }
}
    1398:	bd08      	pop	{r3, pc}
    139a:	bf00      	nop
    139c:	1fff8004 	svcne	0x00ff8004

000013a0 <IRQ095_Handler>:
 *******************************************************************************
 ** \brief Int No.095 IRQ handler
 **
 ******************************************************************************/
void IRQ095_Handler(void)
{
    13a0:	b508      	push	{r3, lr}
    if (NULL != IrqHandler[Int095_IRQn])
    13a2:	4b03      	ldr	r3, [pc, #12]	; (13b0 <IRQ095_Handler+0x10>)
    13a4:	f8d3 317c 	ldr.w	r3, [r3, #380]	; 0x17c
    13a8:	b103      	cbz	r3, 13ac <IRQ095_Handler+0xc>
    {
        IrqHandler[Int095_IRQn]();
    13aa:	4798      	blx	r3
    }
}
    13ac:	bd08      	pop	{r3, pc}
    13ae:	bf00      	nop
    13b0:	1fff8004 	svcne	0x00ff8004

000013b4 <IRQ096_Handler>:
 *******************************************************************************
 ** \brief Int No.096 IRQ handler
 **
 ******************************************************************************/
void IRQ096_Handler(void)
{
    13b4:	b508      	push	{r3, lr}
    if (NULL != IrqHandler[Int096_IRQn])
    13b6:	4b03      	ldr	r3, [pc, #12]	; (13c4 <IRQ096_Handler+0x10>)
    13b8:	f8d3 3180 	ldr.w	r3, [r3, #384]	; 0x180
    13bc:	b103      	cbz	r3, 13c0 <IRQ096_Handler+0xc>
    {
        IrqHandler[Int096_IRQn]();
    13be:	4798      	blx	r3
    }
}
    13c0:	bd08      	pop	{r3, pc}
    13c2:	bf00      	nop
    13c4:	1fff8004 	svcne	0x00ff8004

000013c8 <IRQ097_Handler>:
 *******************************************************************************
 ** \brief Int No.097 IRQ handler
 **
 ******************************************************************************/
void IRQ097_Handler(void)
{
    13c8:	b508      	push	{r3, lr}
    if (NULL != IrqHandler[Int097_IRQn])
    13ca:	4b03      	ldr	r3, [pc, #12]	; (13d8 <IRQ097_Handler+0x10>)
    13cc:	f8d3 3184 	ldr.w	r3, [r3, #388]	; 0x184
    13d0:	b103      	cbz	r3, 13d4 <IRQ097_Handler+0xc>
    {
        IrqHandler[Int097_IRQn]();
    13d2:	4798      	blx	r3
    }
}
    13d4:	bd08      	pop	{r3, pc}
    13d6:	bf00      	nop
    13d8:	1fff8004 	svcne	0x00ff8004

000013dc <IRQ098_Handler>:
 *******************************************************************************
 ** \brief Int No.098 IRQ handler
 **
 ******************************************************************************/
void IRQ098_Handler(void)
{
    13dc:	b508      	push	{r3, lr}
    if (NULL != IrqHandler[Int098_IRQn])
    13de:	4b03      	ldr	r3, [pc, #12]	; (13ec <IRQ098_Handler+0x10>)
    13e0:	f8d3 3188 	ldr.w	r3, [r3, #392]	; 0x188
    13e4:	b103      	cbz	r3, 13e8 <IRQ098_Handler+0xc>
    {
        IrqHandler[Int098_IRQn]();
    13e6:	4798      	blx	r3
    }
}
    13e8:	bd08      	pop	{r3, pc}
    13ea:	bf00      	nop
    13ec:	1fff8004 	svcne	0x00ff8004

000013f0 <IRQ099_Handler>:
 *******************************************************************************
 ** \brief Int No.099 IRQ handler
 **
 ******************************************************************************/
void IRQ099_Handler(void)
{
    13f0:	b508      	push	{r3, lr}
    if (NULL != IrqHandler[Int099_IRQn])
    13f2:	4b03      	ldr	r3, [pc, #12]	; (1400 <IRQ099_Handler+0x10>)
    13f4:	f8d3 318c 	ldr.w	r3, [r3, #396]	; 0x18c
    13f8:	b103      	cbz	r3, 13fc <IRQ099_Handler+0xc>
    {
        IrqHandler[Int099_IRQn]();
    13fa:	4798      	blx	r3
    }
}
    13fc:	bd08      	pop	{r3, pc}
    13fe:	bf00      	nop
    1400:	1fff8004 	svcne	0x00ff8004

00001404 <IRQ100_Handler>:
 *******************************************************************************
 ** \brief Int No.100 IRQ handler
 **
 ******************************************************************************/
void IRQ100_Handler(void)
{
    1404:	b508      	push	{r3, lr}
    if (NULL != IrqHandler[Int100_IRQn])
    1406:	4b03      	ldr	r3, [pc, #12]	; (1414 <IRQ100_Handler+0x10>)
    1408:	f8d3 3190 	ldr.w	r3, [r3, #400]	; 0x190
    140c:	b103      	cbz	r3, 1410 <IRQ100_Handler+0xc>
    {
        IrqHandler[Int100_IRQn]();
    140e:	4798      	blx	r3
    }
}
    1410:	bd08      	pop	{r3, pc}
    1412:	bf00      	nop
    1414:	1fff8004 	svcne	0x00ff8004

00001418 <IRQ101_Handler>:
 *******************************************************************************
 ** \brief Int No.101 IRQ handler
 **
 ******************************************************************************/
void IRQ101_Handler(void)
{
    1418:	b508      	push	{r3, lr}
    if (NULL != IrqHandler[Int101_IRQn])
    141a:	4b03      	ldr	r3, [pc, #12]	; (1428 <IRQ101_Handler+0x10>)
    141c:	f8d3 3194 	ldr.w	r3, [r3, #404]	; 0x194
    1420:	b103      	cbz	r3, 1424 <IRQ101_Handler+0xc>
    {
        IrqHandler[Int101_IRQn]();
    1422:	4798      	blx	r3
    }
}
    1424:	bd08      	pop	{r3, pc}
    1426:	bf00      	nop
    1428:	1fff8004 	svcne	0x00ff8004

0000142c <IRQ102_Handler>:
 *******************************************************************************
 ** \brief Int No.102 IRQ handler
 **
 ******************************************************************************/
void IRQ102_Handler(void)
{
    142c:	b508      	push	{r3, lr}
    if (NULL != IrqHandler[Int102_IRQn])
    142e:	4b03      	ldr	r3, [pc, #12]	; (143c <IRQ102_Handler+0x10>)
    1430:	f8d3 3198 	ldr.w	r3, [r3, #408]	; 0x198
    1434:	b103      	cbz	r3, 1438 <IRQ102_Handler+0xc>
    {
        IrqHandler[Int102_IRQn]();
    1436:	4798      	blx	r3
    }
}
    1438:	bd08      	pop	{r3, pc}
    143a:	bf00      	nop
    143c:	1fff8004 	svcne	0x00ff8004

00001440 <IRQ103_Handler>:
 *******************************************************************************
 ** \brief Int No.103 IRQ handler
 **
 ******************************************************************************/
void IRQ103_Handler(void)
{
    1440:	b508      	push	{r3, lr}
    if (NULL != IrqHandler[Int103_IRQn])
    1442:	4b03      	ldr	r3, [pc, #12]	; (1450 <IRQ103_Handler+0x10>)
    1444:	f8d3 319c 	ldr.w	r3, [r3, #412]	; 0x19c
    1448:	b103      	cbz	r3, 144c <IRQ103_Handler+0xc>
    {
        IrqHandler[Int103_IRQn]();
    144a:	4798      	blx	r3
    }
}
    144c:	bd08      	pop	{r3, pc}
    144e:	bf00      	nop
    1450:	1fff8004 	svcne	0x00ff8004

00001454 <IRQ104_Handler>:
 *******************************************************************************
 ** \brief Int No.104 IRQ handler
 **
 ******************************************************************************/
void IRQ104_Handler(void)
{
    1454:	b508      	push	{r3, lr}
    if (NULL != IrqHandler[Int104_IRQn])
    1456:	4b03      	ldr	r3, [pc, #12]	; (1464 <IRQ104_Handler+0x10>)
    1458:	f8d3 31a0 	ldr.w	r3, [r3, #416]	; 0x1a0
    145c:	b103      	cbz	r3, 1460 <IRQ104_Handler+0xc>
    {
        IrqHandler[Int104_IRQn]();
    145e:	4798      	blx	r3
    }
}
    1460:	bd08      	pop	{r3, pc}
    1462:	bf00      	nop
    1464:	1fff8004 	svcne	0x00ff8004

00001468 <IRQ105_Handler>:
 *******************************************************************************
 ** \brief Int No.105 IRQ handler
 **
 ******************************************************************************/
void IRQ105_Handler(void)
{
    1468:	b508      	push	{r3, lr}
    if (NULL != IrqHandler[Int105_IRQn])
    146a:	4b03      	ldr	r3, [pc, #12]	; (1478 <IRQ105_Handler+0x10>)
    146c:	f8d3 31a4 	ldr.w	r3, [r3, #420]	; 0x1a4
    1470:	b103      	cbz	r3, 1474 <IRQ105_Handler+0xc>
    {
        IrqHandler[Int105_IRQn]();
    1472:	4798      	blx	r3
    }
}
    1474:	bd08      	pop	{r3, pc}
    1476:	bf00      	nop
    1478:	1fff8004 	svcne	0x00ff8004

0000147c <IRQ106_Handler>:
 *******************************************************************************
 ** \brief Int No.106 IRQ handler
 **
 ******************************************************************************/
void IRQ106_Handler(void)
{
    147c:	b508      	push	{r3, lr}
    if (NULL != IrqHandler[Int106_IRQn])
    147e:	4b03      	ldr	r3, [pc, #12]	; (148c <IRQ106_Handler+0x10>)
    1480:	f8d3 31a8 	ldr.w	r3, [r3, #424]	; 0x1a8
    1484:	b103      	cbz	r3, 1488 <IRQ106_Handler+0xc>
    {
        IrqHandler[Int106_IRQn]();
    1486:	4798      	blx	r3
    }
}
    1488:	bd08      	pop	{r3, pc}
    148a:	bf00      	nop
    148c:	1fff8004 	svcne	0x00ff8004

00001490 <IRQ107_Handler>:
 *******************************************************************************
 ** \brief Int No.107 IRQ handler
 **
 ******************************************************************************/
void IRQ107_Handler(void)
{
    1490:	b508      	push	{r3, lr}
    if (NULL != IrqHandler[Int107_IRQn])
    1492:	4b03      	ldr	r3, [pc, #12]	; (14a0 <IRQ107_Handler+0x10>)
    1494:	f8d3 31ac 	ldr.w	r3, [r3, #428]	; 0x1ac
    1498:	b103      	cbz	r3, 149c <IRQ107_Handler+0xc>
    {
        IrqHandler[Int107_IRQn]();
    149a:	4798      	blx	r3
    }
}
    149c:	bd08      	pop	{r3, pc}
    149e:	bf00      	nop
    14a0:	1fff8004 	svcne	0x00ff8004

000014a4 <IRQ108_Handler>:
 *******************************************************************************
 ** \brief Int No.108 IRQ handler
 **
 ******************************************************************************/
void IRQ108_Handler(void)
{
    14a4:	b508      	push	{r3, lr}
    if (NULL != IrqHandler[Int108_IRQn])
    14a6:	4b03      	ldr	r3, [pc, #12]	; (14b4 <IRQ108_Handler+0x10>)
    14a8:	f8d3 31b0 	ldr.w	r3, [r3, #432]	; 0x1b0
    14ac:	b103      	cbz	r3, 14b0 <IRQ108_Handler+0xc>
    {
        IrqHandler[Int108_IRQn]();
    14ae:	4798      	blx	r3
    }
}
    14b0:	bd08      	pop	{r3, pc}
    14b2:	bf00      	nop
    14b4:	1fff8004 	svcne	0x00ff8004

000014b8 <IRQ109_Handler>:
 *******************************************************************************
 ** \brief Int No.109 IRQ handler
 **
 ******************************************************************************/
void IRQ109_Handler(void)
{
    14b8:	b508      	push	{r3, lr}
    if (NULL != IrqHandler[Int109_IRQn])
    14ba:	4b03      	ldr	r3, [pc, #12]	; (14c8 <IRQ109_Handler+0x10>)
    14bc:	f8d3 31b4 	ldr.w	r3, [r3, #436]	; 0x1b4
    14c0:	b103      	cbz	r3, 14c4 <IRQ109_Handler+0xc>
    {
        IrqHandler[Int109_IRQn]();
    14c2:	4798      	blx	r3
    }
}
    14c4:	bd08      	pop	{r3, pc}
    14c6:	bf00      	nop
    14c8:	1fff8004 	svcne	0x00ff8004

000014cc <IRQ110_Handler>:
 *******************************************************************************
 ** \brief Int No.110 IRQ handler
 **
 ******************************************************************************/
void IRQ110_Handler(void)
{
    14cc:	b508      	push	{r3, lr}
    if (NULL != IrqHandler[Int110_IRQn])
    14ce:	4b03      	ldr	r3, [pc, #12]	; (14dc <IRQ110_Handler+0x10>)
    14d0:	f8d3 31b8 	ldr.w	r3, [r3, #440]	; 0x1b8
    14d4:	b103      	cbz	r3, 14d8 <IRQ110_Handler+0xc>
    {
        IrqHandler[Int110_IRQn]();
    14d6:	4798      	blx	r3
    }
}
    14d8:	bd08      	pop	{r3, pc}
    14da:	bf00      	nop
    14dc:	1fff8004 	svcne	0x00ff8004

000014e0 <IRQ111_Handler>:
 *******************************************************************************
 ** \brief Int No.111 IRQ handler
 **
 ******************************************************************************/
void IRQ111_Handler(void)
{
    14e0:	b508      	push	{r3, lr}
    if (NULL != IrqHandler[Int111_IRQn])
    14e2:	4b03      	ldr	r3, [pc, #12]	; (14f0 <IRQ111_Handler+0x10>)
    14e4:	f8d3 31bc 	ldr.w	r3, [r3, #444]	; 0x1bc
    14e8:	b103      	cbz	r3, 14ec <IRQ111_Handler+0xc>
    {
        IrqHandler[Int111_IRQn]();
    14ea:	4798      	blx	r3
    }
}
    14ec:	bd08      	pop	{r3, pc}
    14ee:	bf00      	nop
    14f0:	1fff8004 	svcne	0x00ff8004

000014f4 <IRQ112_Handler>:
 *******************************************************************************
 ** \brief Int No.112 IRQ handler
 **
 ******************************************************************************/
void IRQ112_Handler(void)
{
    14f4:	b508      	push	{r3, lr}
    if (NULL != IrqHandler[Int112_IRQn])
    14f6:	4b03      	ldr	r3, [pc, #12]	; (1504 <IRQ112_Handler+0x10>)
    14f8:	f8d3 31c0 	ldr.w	r3, [r3, #448]	; 0x1c0
    14fc:	b103      	cbz	r3, 1500 <IRQ112_Handler+0xc>
    {
        IrqHandler[Int112_IRQn]();
    14fe:	4798      	blx	r3
    }
}
    1500:	bd08      	pop	{r3, pc}
    1502:	bf00      	nop
    1504:	1fff8004 	svcne	0x00ff8004

00001508 <IRQ113_Handler>:
 *******************************************************************************
 ** \brief Int No.113 IRQ handler
 **
 ******************************************************************************/
void IRQ113_Handler(void)
{
    1508:	b508      	push	{r3, lr}
    if (NULL != IrqHandler[Int113_IRQn])
    150a:	4b03      	ldr	r3, [pc, #12]	; (1518 <IRQ113_Handler+0x10>)
    150c:	f8d3 31c4 	ldr.w	r3, [r3, #452]	; 0x1c4
    1510:	b103      	cbz	r3, 1514 <IRQ113_Handler+0xc>
    {
        IrqHandler[Int113_IRQn]();
    1512:	4798      	blx	r3
    }
}
    1514:	bd08      	pop	{r3, pc}
    1516:	bf00      	nop
    1518:	1fff8004 	svcne	0x00ff8004

0000151c <IRQ114_Handler>:
 *******************************************************************************
 ** \brief Int No.114 IRQ handler
 **
 ******************************************************************************/
void IRQ114_Handler(void)
{
    151c:	b508      	push	{r3, lr}
    if (NULL != IrqHandler[Int114_IRQn])
    151e:	4b03      	ldr	r3, [pc, #12]	; (152c <IRQ114_Handler+0x10>)
    1520:	f8d3 31c8 	ldr.w	r3, [r3, #456]	; 0x1c8
    1524:	b103      	cbz	r3, 1528 <IRQ114_Handler+0xc>
    {
        IrqHandler[Int114_IRQn]();
    1526:	4798      	blx	r3
    }
}
    1528:	bd08      	pop	{r3, pc}
    152a:	bf00      	nop
    152c:	1fff8004 	svcne	0x00ff8004

00001530 <IRQ115_Handler>:
 *******************************************************************************
 ** \brief Int No.115 IRQ handler
 **
 ******************************************************************************/
void IRQ115_Handler(void)
{
    1530:	b508      	push	{r3, lr}
    if (NULL != IrqHandler[Int115_IRQn])
    1532:	4b03      	ldr	r3, [pc, #12]	; (1540 <IRQ115_Handler+0x10>)
    1534:	f8d3 31cc 	ldr.w	r3, [r3, #460]	; 0x1cc
    1538:	b103      	cbz	r3, 153c <IRQ115_Handler+0xc>
    {
        IrqHandler[Int115_IRQn]();
    153a:	4798      	blx	r3
    }
}
    153c:	bd08      	pop	{r3, pc}
    153e:	bf00      	nop
    1540:	1fff8004 	svcne	0x00ff8004

00001544 <IRQ116_Handler>:
 *******************************************************************************
 ** \brief Int No.116 IRQ handler
 **
 ******************************************************************************/
void IRQ116_Handler(void)
{
    1544:	b508      	push	{r3, lr}
    if (NULL != IrqHandler[Int116_IRQn])
    1546:	4b03      	ldr	r3, [pc, #12]	; (1554 <IRQ116_Handler+0x10>)
    1548:	f8d3 31d0 	ldr.w	r3, [r3, #464]	; 0x1d0
    154c:	b103      	cbz	r3, 1550 <IRQ116_Handler+0xc>
    {
        IrqHandler[Int116_IRQn]();
    154e:	4798      	blx	r3
    }
}
    1550:	bd08      	pop	{r3, pc}
    1552:	bf00      	nop
    1554:	1fff8004 	svcne	0x00ff8004

00001558 <IRQ117_Handler>:
 *******************************************************************************
 ** \brief Int No.117 IRQ handler
 **
 ******************************************************************************/
void IRQ117_Handler(void)
{
    1558:	b508      	push	{r3, lr}
    if (NULL != IrqHandler[Int117_IRQn])
    155a:	4b03      	ldr	r3, [pc, #12]	; (1568 <IRQ117_Handler+0x10>)
    155c:	f8d3 31d4 	ldr.w	r3, [r3, #468]	; 0x1d4
    1560:	b103      	cbz	r3, 1564 <IRQ117_Handler+0xc>
    {
        IrqHandler[Int117_IRQn]();
    1562:	4798      	blx	r3
    }
}
    1564:	bd08      	pop	{r3, pc}
    1566:	bf00      	nop
    1568:	1fff8004 	svcne	0x00ff8004

0000156c <IRQ118_Handler>:
 *******************************************************************************
 ** \brief Int No.118 IRQ handler
 **
 ******************************************************************************/
void IRQ118_Handler(void)
{
    156c:	b508      	push	{r3, lr}
    if (NULL != IrqHandler[Int118_IRQn])
    156e:	4b03      	ldr	r3, [pc, #12]	; (157c <IRQ118_Handler+0x10>)
    1570:	f8d3 31d8 	ldr.w	r3, [r3, #472]	; 0x1d8
    1574:	b103      	cbz	r3, 1578 <IRQ118_Handler+0xc>
    {
        IrqHandler[Int118_IRQn]();
    1576:	4798      	blx	r3
    }
}
    1578:	bd08      	pop	{r3, pc}
    157a:	bf00      	nop
    157c:	1fff8004 	svcne	0x00ff8004

00001580 <IRQ119_Handler>:
 *******************************************************************************
 ** \brief Int No.119 IRQ handler
 **
 ******************************************************************************/
void IRQ119_Handler(void)
{
    1580:	b508      	push	{r3, lr}
    if (NULL != IrqHandler[Int119_IRQn])
    1582:	4b03      	ldr	r3, [pc, #12]	; (1590 <IRQ119_Handler+0x10>)
    1584:	f8d3 31dc 	ldr.w	r3, [r3, #476]	; 0x1dc
    1588:	b103      	cbz	r3, 158c <IRQ119_Handler+0xc>
    {
        IrqHandler[Int119_IRQn]();
    158a:	4798      	blx	r3
    }
}
    158c:	bd08      	pop	{r3, pc}
    158e:	bf00      	nop
    1590:	1fff8004 	svcne	0x00ff8004

00001594 <IRQ120_Handler>:
 *******************************************************************************
 ** \brief Int No.120 IRQ handler
 **
 ******************************************************************************/
void IRQ120_Handler(void)
{
    1594:	b508      	push	{r3, lr}
    if (NULL != IrqHandler[Int120_IRQn])
    1596:	4b03      	ldr	r3, [pc, #12]	; (15a4 <IRQ120_Handler+0x10>)
    1598:	f8d3 31e0 	ldr.w	r3, [r3, #480]	; 0x1e0
    159c:	b103      	cbz	r3, 15a0 <IRQ120_Handler+0xc>
    {
        IrqHandler[Int120_IRQn]();
    159e:	4798      	blx	r3
    }
}
    15a0:	bd08      	pop	{r3, pc}
    15a2:	bf00      	nop
    15a4:	1fff8004 	svcne	0x00ff8004

000015a8 <IRQ121_Handler>:
 *******************************************************************************
 ** \brief Int No.121 IRQ handler
 **
 ******************************************************************************/
void IRQ121_Handler(void)
{
    15a8:	b508      	push	{r3, lr}
    if (NULL != IrqHandler[Int121_IRQn])
    15aa:	4b03      	ldr	r3, [pc, #12]	; (15b8 <IRQ121_Handler+0x10>)
    15ac:	f8d3 31e4 	ldr.w	r3, [r3, #484]	; 0x1e4
    15b0:	b103      	cbz	r3, 15b4 <IRQ121_Handler+0xc>
    {
        IrqHandler[Int121_IRQn]();
    15b2:	4798      	blx	r3
    }
}
    15b4:	bd08      	pop	{r3, pc}
    15b6:	bf00      	nop
    15b8:	1fff8004 	svcne	0x00ff8004

000015bc <IRQ122_Handler>:
 *******************************************************************************
 ** \brief Int No.122 IRQ handler
 **
 ******************************************************************************/
void IRQ122_Handler(void)
{
    15bc:	b508      	push	{r3, lr}
    if (NULL != IrqHandler[Int122_IRQn])
    15be:	4b03      	ldr	r3, [pc, #12]	; (15cc <IRQ122_Handler+0x10>)
    15c0:	f8d3 31e8 	ldr.w	r3, [r3, #488]	; 0x1e8
    15c4:	b103      	cbz	r3, 15c8 <IRQ122_Handler+0xc>
    {
        IrqHandler[Int122_IRQn]();
    15c6:	4798      	blx	r3
    }
}
    15c8:	bd08      	pop	{r3, pc}
    15ca:	bf00      	nop
    15cc:	1fff8004 	svcne	0x00ff8004

000015d0 <IRQ123_Handler>:
 *******************************************************************************
 ** \brief Int No.123 IRQ handler
 **
 ******************************************************************************/
void IRQ123_Handler(void)
{
    15d0:	b508      	push	{r3, lr}
    if (NULL != IrqHandler[Int123_IRQn])
    15d2:	4b03      	ldr	r3, [pc, #12]	; (15e0 <IRQ123_Handler+0x10>)
    15d4:	f8d3 31ec 	ldr.w	r3, [r3, #492]	; 0x1ec
    15d8:	b103      	cbz	r3, 15dc <IRQ123_Handler+0xc>
    {
        IrqHandler[Int123_IRQn]();
    15da:	4798      	blx	r3
    }
}
    15dc:	bd08      	pop	{r3, pc}
    15de:	bf00      	nop
    15e0:	1fff8004 	svcne	0x00ff8004

000015e4 <IRQ124_Handler>:
 *******************************************************************************
 ** \brief Int No.124 IRQ handler
 **
 ******************************************************************************/
void IRQ124_Handler(void)
{
    15e4:	b508      	push	{r3, lr}
    if (NULL != IrqHandler[Int124_IRQn])
    15e6:	4b03      	ldr	r3, [pc, #12]	; (15f4 <IRQ124_Handler+0x10>)
    15e8:	f8d3 31f0 	ldr.w	r3, [r3, #496]	; 0x1f0
    15ec:	b103      	cbz	r3, 15f0 <IRQ124_Handler+0xc>
    {
        IrqHandler[Int124_IRQn]();
    15ee:	4798      	blx	r3
    }
}
    15f0:	bd08      	pop	{r3, pc}
    15f2:	bf00      	nop
    15f4:	1fff8004 	svcne	0x00ff8004

000015f8 <IRQ125_Handler>:
 *******************************************************************************
 ** \brief Int No.125 IRQ handler
 **
 ******************************************************************************/
void IRQ125_Handler(void)
{
    15f8:	b508      	push	{r3, lr}
    if (NULL != IrqHandler[Int125_IRQn])
    15fa:	4b03      	ldr	r3, [pc, #12]	; (1608 <IRQ125_Handler+0x10>)
    15fc:	f8d3 31f4 	ldr.w	r3, [r3, #500]	; 0x1f4
    1600:	b103      	cbz	r3, 1604 <IRQ125_Handler+0xc>
    {
        IrqHandler[Int125_IRQn]();
    1602:	4798      	blx	r3
    }
}
    1604:	bd08      	pop	{r3, pc}
    1606:	bf00      	nop
    1608:	1fff8004 	svcne	0x00ff8004

0000160c <IRQ126_Handler>:
 *******************************************************************************
 ** \brief Int No.126 IRQ handler
 **
 ******************************************************************************/
void IRQ126_Handler(void)
{
    160c:	b508      	push	{r3, lr}
    if (NULL != IrqHandler[Int126_IRQn])
    160e:	4b03      	ldr	r3, [pc, #12]	; (161c <IRQ126_Handler+0x10>)
    1610:	f8d3 31f8 	ldr.w	r3, [r3, #504]	; 0x1f8
    1614:	b103      	cbz	r3, 1618 <IRQ126_Handler+0xc>
    {
        IrqHandler[Int126_IRQn]();
    1616:	4798      	blx	r3
    }
}
    1618:	bd08      	pop	{r3, pc}
    161a:	bf00      	nop
    161c:	1fff8004 	svcne	0x00ff8004

00001620 <IRQ127_Handler>:
 *******************************************************************************
 ** \brief Int No.127 IRQ handler
 **
 ******************************************************************************/
void IRQ127_Handler(void)
{
    1620:	b508      	push	{r3, lr}
    if (NULL != IrqHandler[Int127_IRQn])
    1622:	4b03      	ldr	r3, [pc, #12]	; (1630 <IRQ127_Handler+0x10>)
    1624:	f8d3 31fc 	ldr.w	r3, [r3, #508]	; 0x1fc
    1628:	b103      	cbz	r3, 162c <IRQ127_Handler+0xc>
    {
        IrqHandler[Int127_IRQn]();
    162a:	4798      	blx	r3
    }
}
    162c:	bd08      	pop	{r3, pc}
    162e:	bf00      	nop
    1630:	1fff8004 	svcne	0x00ff8004

00001634 <IRQ128_Handler>:
 *******************************************************************************
 ** \brief Int No.128 share IRQ handler
 **
 ******************************************************************************/
void IRQ128_Handler(void)
{
    1634:	b510      	push	{r4, lr}
    uint32_t VSSEL128 = M4_INTC->VSSEL128;
    1636:	4b52      	ldr	r3, [pc, #328]	; (1780 <IRQ128_Handler+0x14c>)
    1638:	f8d3 425c 	ldr.w	r4, [r3, #604]	; 0x25c

    /* external interrupt 00 */
    if ((Set == bM4_INTC_EIFR_EIFR0) && (VSSEL128 & BIT_MASK_00))
    163c:	4b51      	ldr	r3, [pc, #324]	; (1784 <IRQ128_Handler+0x150>)
    163e:	681b      	ldr	r3, [r3, #0]
    1640:	2b01      	cmp	r3, #1
    1642:	d03c      	beq.n	16be <IRQ128_Handler+0x8a>
    {
        Extint00_IrqHandler();
    }
    /* external interrupt 01 */
    if ((Set == bM4_INTC_EIFR_EIFR1) && (VSSEL128 & BIT_MASK_01))
    1644:	4b50      	ldr	r3, [pc, #320]	; (1788 <IRQ128_Handler+0x154>)
    1646:	681b      	ldr	r3, [r3, #0]
    1648:	2b01      	cmp	r3, #1
    164a:	d03e      	beq.n	16ca <IRQ128_Handler+0x96>
    {
        Extint01_IrqHandler();
    }
    /* external interrupt 02 */
    if ((Set == bM4_INTC_EIFR_EIFR2) && (VSSEL128 & BIT_MASK_02))
    164c:	4b4f      	ldr	r3, [pc, #316]	; (178c <IRQ128_Handler+0x158>)
    164e:	681b      	ldr	r3, [r3, #0]
    1650:	2b01      	cmp	r3, #1
    1652:	d040      	beq.n	16d6 <IRQ128_Handler+0xa2>
    {
        Extint02_IrqHandler();
    }
    /* external interrupt 03 */
    if ((Set == bM4_INTC_EIFR_EIFR3) && (VSSEL128 & BIT_MASK_03))
    1654:	4b4e      	ldr	r3, [pc, #312]	; (1790 <IRQ128_Handler+0x15c>)
    1656:	681b      	ldr	r3, [r3, #0]
    1658:	2b01      	cmp	r3, #1
    165a:	d042      	beq.n	16e2 <IRQ128_Handler+0xae>
    {
        Extint03_IrqHandler();
    }
    /* external interrupt 04 */
    if ((Set == bM4_INTC_EIFR_EIFR4) && (VSSEL128 & BIT_MASK_04))
    165c:	4b4d      	ldr	r3, [pc, #308]	; (1794 <IRQ128_Handler+0x160>)
    165e:	681b      	ldr	r3, [r3, #0]
    1660:	2b01      	cmp	r3, #1
    1662:	d044      	beq.n	16ee <IRQ128_Handler+0xba>
    {
        Extint04_IrqHandler();
    }
    /* external interrupt 05 */
    if ((Set == bM4_INTC_EIFR_EIFR5) && (VSSEL128 & BIT_MASK_05))
    1664:	4b4c      	ldr	r3, [pc, #304]	; (1798 <IRQ128_Handler+0x164>)
    1666:	681b      	ldr	r3, [r3, #0]
    1668:	2b01      	cmp	r3, #1
    166a:	d046      	beq.n	16fa <IRQ128_Handler+0xc6>
    {
        Extint05_IrqHandler();
    }
    /* external interrupt 06 */
    if ((Set == bM4_INTC_EIFR_EIFR6) && (VSSEL128 & BIT_MASK_06))
    166c:	4b4b      	ldr	r3, [pc, #300]	; (179c <IRQ128_Handler+0x168>)
    166e:	681b      	ldr	r3, [r3, #0]
    1670:	2b01      	cmp	r3, #1
    1672:	d048      	beq.n	1706 <IRQ128_Handler+0xd2>
    {
        Extint06_IrqHandler();
    }
    /* external interrupt 07 */
    if ((Set == bM4_INTC_EIFR_EIFR7) && (VSSEL128 & BIT_MASK_07))
    1674:	4b4a      	ldr	r3, [pc, #296]	; (17a0 <IRQ128_Handler+0x16c>)
    1676:	681b      	ldr	r3, [r3, #0]
    1678:	2b01      	cmp	r3, #1
    167a:	d04a      	beq.n	1712 <IRQ128_Handler+0xde>
    {
        Extint07_IrqHandler();
    }
    /* external interrupt 08 */
    if ((Set == bM4_INTC_EIFR_EIFR8) && (VSSEL128 & BIT_MASK_08))
    167c:	4b49      	ldr	r3, [pc, #292]	; (17a4 <IRQ128_Handler+0x170>)
    167e:	681b      	ldr	r3, [r3, #0]
    1680:	2b01      	cmp	r3, #1
    1682:	d04c      	beq.n	171e <IRQ128_Handler+0xea>
    {
        Extint08_IrqHandler();
    }
    /* external interrupt 09 */
    if ((Set == bM4_INTC_EIFR_EIFR9) && (VSSEL128 & BIT_MASK_09))
    1684:	4b48      	ldr	r3, [pc, #288]	; (17a8 <IRQ128_Handler+0x174>)
    1686:	681b      	ldr	r3, [r3, #0]
    1688:	2b01      	cmp	r3, #1
    168a:	d04e      	beq.n	172a <IRQ128_Handler+0xf6>
    {
        Extint09_IrqHandler();
    }
    /* external interrupt 10 */
    if ((Set == bM4_INTC_EIFR_EIFR10) && (VSSEL128 & BIT_MASK_10))
    168c:	4b47      	ldr	r3, [pc, #284]	; (17ac <IRQ128_Handler+0x178>)
    168e:	681b      	ldr	r3, [r3, #0]
    1690:	2b01      	cmp	r3, #1
    1692:	d050      	beq.n	1736 <IRQ128_Handler+0x102>
    {
        Extint10_IrqHandler();
    }
    /* external interrupt 11 */
    if ((Set == bM4_INTC_EIFR_EIFR11) && (VSSEL128 & BIT_MASK_11))
    1694:	4b46      	ldr	r3, [pc, #280]	; (17b0 <IRQ128_Handler+0x17c>)
    1696:	681b      	ldr	r3, [r3, #0]
    1698:	2b01      	cmp	r3, #1
    169a:	d052      	beq.n	1742 <IRQ128_Handler+0x10e>
    {
        Extint11_IrqHandler();
    }
    /* external interrupt 12 */
    if ((Set == bM4_INTC_EIFR_EIFR12) && (VSSEL128 & BIT_MASK_12))
    169c:	4b45      	ldr	r3, [pc, #276]	; (17b4 <IRQ128_Handler+0x180>)
    169e:	681b      	ldr	r3, [r3, #0]
    16a0:	2b01      	cmp	r3, #1
    16a2:	d054      	beq.n	174e <IRQ128_Handler+0x11a>
    {
        Extint12_IrqHandler();
    }
    /* external interrupt 13 */
    if ((Set == bM4_INTC_EIFR_EIFR13) && (VSSEL128 & BIT_MASK_13))
    16a4:	4b44      	ldr	r3, [pc, #272]	; (17b8 <IRQ128_Handler+0x184>)
    16a6:	681b      	ldr	r3, [r3, #0]
    16a8:	2b01      	cmp	r3, #1
    16aa:	d056      	beq.n	175a <IRQ128_Handler+0x126>
    {
        Extint13_IrqHandler();
    }
    /* external interrupt 14 */
    if ((Set == bM4_INTC_EIFR_EIFR14) && (VSSEL128 & BIT_MASK_14))
    16ac:	4b43      	ldr	r3, [pc, #268]	; (17bc <IRQ128_Handler+0x188>)
    16ae:	681b      	ldr	r3, [r3, #0]
    16b0:	2b01      	cmp	r3, #1
    16b2:	d058      	beq.n	1766 <IRQ128_Handler+0x132>
    {
        Extint14_IrqHandler();
    }
    /* external interrupt 15 */
    if ((Set == bM4_INTC_EIFR_EIFR15) && (VSSEL128 & BIT_MASK_15))
    16b4:	4b42      	ldr	r3, [pc, #264]	; (17c0 <IRQ128_Handler+0x18c>)
    16b6:	681b      	ldr	r3, [r3, #0]
    16b8:	2b01      	cmp	r3, #1
    16ba:	d05a      	beq.n	1772 <IRQ128_Handler+0x13e>
    {
        Extint15_IrqHandler();
    }
}
    16bc:	bd10      	pop	{r4, pc}
    if ((Set == bM4_INTC_EIFR_EIFR0) && (VSSEL128 & BIT_MASK_00))
    16be:	f014 0f01 	tst.w	r4, #1
    16c2:	d0bf      	beq.n	1644 <IRQ128_Handler+0x10>
        Extint00_IrqHandler();
    16c4:	f3af 8000 	nop.w
    16c8:	e7bc      	b.n	1644 <IRQ128_Handler+0x10>
    if ((Set == bM4_INTC_EIFR_EIFR1) && (VSSEL128 & BIT_MASK_01))
    16ca:	f014 0f02 	tst.w	r4, #2
    16ce:	d0bd      	beq.n	164c <IRQ128_Handler+0x18>
        Extint01_IrqHandler();
    16d0:	f3af 8000 	nop.w
    16d4:	e7ba      	b.n	164c <IRQ128_Handler+0x18>
    if ((Set == bM4_INTC_EIFR_EIFR2) && (VSSEL128 & BIT_MASK_02))
    16d6:	f014 0f04 	tst.w	r4, #4
    16da:	d0bb      	beq.n	1654 <IRQ128_Handler+0x20>
        Extint02_IrqHandler();
    16dc:	f3af 8000 	nop.w
    16e0:	e7b8      	b.n	1654 <IRQ128_Handler+0x20>
    if ((Set == bM4_INTC_EIFR_EIFR3) && (VSSEL128 & BIT_MASK_03))
    16e2:	f014 0f08 	tst.w	r4, #8
    16e6:	d0b9      	beq.n	165c <IRQ128_Handler+0x28>
        Extint03_IrqHandler();
    16e8:	f3af 8000 	nop.w
    16ec:	e7b6      	b.n	165c <IRQ128_Handler+0x28>
    if ((Set == bM4_INTC_EIFR_EIFR4) && (VSSEL128 & BIT_MASK_04))
    16ee:	f014 0f10 	tst.w	r4, #16
    16f2:	d0b7      	beq.n	1664 <IRQ128_Handler+0x30>
        Extint04_IrqHandler();
    16f4:	f3af 8000 	nop.w
    16f8:	e7b4      	b.n	1664 <IRQ128_Handler+0x30>
    if ((Set == bM4_INTC_EIFR_EIFR5) && (VSSEL128 & BIT_MASK_05))
    16fa:	f014 0f20 	tst.w	r4, #32
    16fe:	d0b5      	beq.n	166c <IRQ128_Handler+0x38>
        Extint05_IrqHandler();
    1700:	f3af 8000 	nop.w
    1704:	e7b2      	b.n	166c <IRQ128_Handler+0x38>
    if ((Set == bM4_INTC_EIFR_EIFR6) && (VSSEL128 & BIT_MASK_06))
    1706:	f014 0f40 	tst.w	r4, #64	; 0x40
    170a:	d0b3      	beq.n	1674 <IRQ128_Handler+0x40>
        Extint06_IrqHandler();
    170c:	f3af 8000 	nop.w
    1710:	e7b0      	b.n	1674 <IRQ128_Handler+0x40>
    if ((Set == bM4_INTC_EIFR_EIFR7) && (VSSEL128 & BIT_MASK_07))
    1712:	f014 0f80 	tst.w	r4, #128	; 0x80
    1716:	d0b1      	beq.n	167c <IRQ128_Handler+0x48>
        Extint07_IrqHandler();
    1718:	f3af 8000 	nop.w
    171c:	e7ae      	b.n	167c <IRQ128_Handler+0x48>
    if ((Set == bM4_INTC_EIFR_EIFR8) && (VSSEL128 & BIT_MASK_08))
    171e:	f414 7f80 	tst.w	r4, #256	; 0x100
    1722:	d0af      	beq.n	1684 <IRQ128_Handler+0x50>
        Extint08_IrqHandler();
    1724:	f3af 8000 	nop.w
    1728:	e7ac      	b.n	1684 <IRQ128_Handler+0x50>
    if ((Set == bM4_INTC_EIFR_EIFR9) && (VSSEL128 & BIT_MASK_09))
    172a:	f414 7f00 	tst.w	r4, #512	; 0x200
    172e:	d0ad      	beq.n	168c <IRQ128_Handler+0x58>
        Extint09_IrqHandler();
    1730:	f3af 8000 	nop.w
    1734:	e7aa      	b.n	168c <IRQ128_Handler+0x58>
    if ((Set == bM4_INTC_EIFR_EIFR10) && (VSSEL128 & BIT_MASK_10))
    1736:	f414 6f80 	tst.w	r4, #1024	; 0x400
    173a:	d0ab      	beq.n	1694 <IRQ128_Handler+0x60>
        Extint10_IrqHandler();
    173c:	f3af 8000 	nop.w
    1740:	e7a8      	b.n	1694 <IRQ128_Handler+0x60>
    if ((Set == bM4_INTC_EIFR_EIFR11) && (VSSEL128 & BIT_MASK_11))
    1742:	f414 6f00 	tst.w	r4, #2048	; 0x800
    1746:	d0a9      	beq.n	169c <IRQ128_Handler+0x68>
        Extint11_IrqHandler();
    1748:	f3af 8000 	nop.w
    174c:	e7a6      	b.n	169c <IRQ128_Handler+0x68>
    if ((Set == bM4_INTC_EIFR_EIFR12) && (VSSEL128 & BIT_MASK_12))
    174e:	f414 5f80 	tst.w	r4, #4096	; 0x1000
    1752:	d0a7      	beq.n	16a4 <IRQ128_Handler+0x70>
        Extint12_IrqHandler();
    1754:	f3af 8000 	nop.w
    1758:	e7a4      	b.n	16a4 <IRQ128_Handler+0x70>
    if ((Set == bM4_INTC_EIFR_EIFR13) && (VSSEL128 & BIT_MASK_13))
    175a:	f414 5f00 	tst.w	r4, #8192	; 0x2000
    175e:	d0a5      	beq.n	16ac <IRQ128_Handler+0x78>
        Extint13_IrqHandler();
    1760:	f3af 8000 	nop.w
    1764:	e7a2      	b.n	16ac <IRQ128_Handler+0x78>
    if ((Set == bM4_INTC_EIFR_EIFR14) && (VSSEL128 & BIT_MASK_14))
    1766:	f414 4f80 	tst.w	r4, #16384	; 0x4000
    176a:	d0a3      	beq.n	16b4 <IRQ128_Handler+0x80>
        Extint14_IrqHandler();
    176c:	f3af 8000 	nop.w
    1770:	e7a0      	b.n	16b4 <IRQ128_Handler+0x80>
    if ((Set == bM4_INTC_EIFR_EIFR15) && (VSSEL128 & BIT_MASK_15))
    1772:	f414 4f00 	tst.w	r4, #32768	; 0x8000
    1776:	d0a1      	beq.n	16bc <IRQ128_Handler+0x88>
        Extint15_IrqHandler();
    1778:	f3af 8000 	nop.w
}
    177c:	e79e      	b.n	16bc <IRQ128_Handler+0x88>
    177e:	bf00      	nop
    1780:	40051000 	andmi	r1, r5, r0
    1784:	42a20a80 	adcmi	r0, r2, #128, 20	; 0x80000
    1788:	42a20a84 	adcmi	r0, r2, #132, 20	; 0x84000
    178c:	42a20a88 	adcmi	r0, r2, #136, 20	; 0x88000
    1790:	42a20a8c 	adcmi	r0, r2, #140, 20	; 0x8c000
    1794:	42a20a90 	adcmi	r0, r2, #144, 20	; 0x90000
    1798:	42a20a94 	adcmi	r0, r2, #148, 20	; 0x94000
    179c:	42a20a98 	adcmi	r0, r2, #152, 20	; 0x98000
    17a0:	42a20a9c 	adcmi	r0, r2, #156, 20	; 0x9c000
    17a4:	42a20aa0 	adcmi	r0, r2, #160, 20	; 0xa0000
    17a8:	42a20aa4 	adcmi	r0, r2, #164, 20	; 0xa4000
    17ac:	42a20aa8 	adcmi	r0, r2, #168, 20	; 0xa8000
    17b0:	42a20aac 	adcmi	r0, r2, #172, 20	; 0xac000
    17b4:	42a20ab0 	adcmi	r0, r2, #176, 20	; 0xb0000
    17b8:	42a20ab4 	adcmi	r0, r2, #180, 20	; 0xb4000
    17bc:	42a20ab8 	adcmi	r0, r2, #184, 20	; 0xb8000
    17c0:	42a20abc 	adcmi	r0, r2, #188, 20	; 0xbc000

000017c4 <IRQ129_Handler>:
 *******************************************************************************
 ** \brief Int No.129 share IRQ handler
 **
 ******************************************************************************/
void IRQ129_Handler(void)
{
    17c4:	b510      	push	{r4, lr}
    uint32_t VSSEL129 =M4_INTC->VSSEL129;
    17c6:	4ba8      	ldr	r3, [pc, #672]	; (1a68 <IRQ129_Handler+0x2a4>)
    17c8:	f8d3 4260 	ldr.w	r4, [r3, #608]	; 0x260
    uint32_t u32Tmp1 = 0ul;
    uint32_t u32Tmp2 = 0ul;
    /* DMA1 ch.0 Tx completed */
    if (Reset == bM4_DMA1_INTMASK1_MSKTC0)
    17cc:	f103 7328 	add.w	r3, r3, #44040192	; 0x2a00000
    17d0:	f503 4372 	add.w	r3, r3, #61952	; 0xf200
    17d4:	681b      	ldr	r3, [r3, #0]
    17d6:	b923      	cbnz	r3, 17e2 <IRQ129_Handler+0x1e>
    {
        if ((Set == bM4_DMA1_INTSTAT1_TC0) && (VSSEL129 & BIT_MASK_00))
    17d8:	4ba4      	ldr	r3, [pc, #656]	; (1a6c <IRQ129_Handler+0x2a8>)
    17da:	681b      	ldr	r3, [r3, #0]
    17dc:	2b01      	cmp	r3, #1
    17de:	f000 80c9 	beq.w	1974 <IRQ129_Handler+0x1b0>
        {
            Dma1Tc0_IrqHandler();
        }
    }
    /* DMA1 ch.1 Tx completed */
    if (Reset == bM4_DMA1_INTMASK1_MSKTC1)
    17e2:	4ba3      	ldr	r3, [pc, #652]	; (1a70 <IRQ129_Handler+0x2ac>)
    17e4:	681b      	ldr	r3, [r3, #0]
    17e6:	b923      	cbnz	r3, 17f2 <IRQ129_Handler+0x2e>
    {
        if ((Set == bM4_DMA1_INTSTAT1_TC1)  && (VSSEL129 & BIT_MASK_01))
    17e8:	4ba2      	ldr	r3, [pc, #648]	; (1a74 <IRQ129_Handler+0x2b0>)
    17ea:	681b      	ldr	r3, [r3, #0]
    17ec:	2b01      	cmp	r3, #1
    17ee:	f000 80c8 	beq.w	1982 <IRQ129_Handler+0x1be>
        {
            Dma1Tc1_IrqHandler();
        }
    }
    /* DMA1 ch.2 Tx completed */
    if (Reset == bM4_DMA1_INTMASK1_MSKTC2)
    17f2:	4ba1      	ldr	r3, [pc, #644]	; (1a78 <IRQ129_Handler+0x2b4>)
    17f4:	681b      	ldr	r3, [r3, #0]
    17f6:	b923      	cbnz	r3, 1802 <IRQ129_Handler+0x3e>
    {
        if ((Set == bM4_DMA1_INTSTAT1_TC2)  && (VSSEL129 & BIT_MASK_02))
    17f8:	4ba0      	ldr	r3, [pc, #640]	; (1a7c <IRQ129_Handler+0x2b8>)
    17fa:	681b      	ldr	r3, [r3, #0]
    17fc:	2b01      	cmp	r3, #1
    17fe:	f000 80c7 	beq.w	1990 <IRQ129_Handler+0x1cc>
        {
            Dma1Tc2_IrqHandler();
        }
    }
    /* DMA1 ch.3 Tx completed */
    if (Reset == bM4_DMA1_INTMASK1_MSKTC3)
    1802:	4b9f      	ldr	r3, [pc, #636]	; (1a80 <IRQ129_Handler+0x2bc>)
    1804:	681b      	ldr	r3, [r3, #0]
    1806:	b923      	cbnz	r3, 1812 <IRQ129_Handler+0x4e>
    {
        if ((Set == bM4_DMA1_INTSTAT1_TC3)  && (VSSEL129 & BIT_MASK_03))
    1808:	4b9e      	ldr	r3, [pc, #632]	; (1a84 <IRQ129_Handler+0x2c0>)
    180a:	681b      	ldr	r3, [r3, #0]
    180c:	2b01      	cmp	r3, #1
    180e:	f000 80c6 	beq.w	199e <IRQ129_Handler+0x1da>
        {
            Dma1Tc3_IrqHandler();
        }
    }
    /* DMA2 ch.0 Tx completed */
    if (Reset == bM4_DMA2_INTMASK1_MSKTC0)
    1812:	4b9d      	ldr	r3, [pc, #628]	; (1a88 <IRQ129_Handler+0x2c4>)
    1814:	681b      	ldr	r3, [r3, #0]
    1816:	b923      	cbnz	r3, 1822 <IRQ129_Handler+0x5e>
    {
        if ((Set == bM4_DMA2_INTSTAT1_TC0) && (VSSEL129 & BIT_MASK_04))
    1818:	4b9c      	ldr	r3, [pc, #624]	; (1a8c <IRQ129_Handler+0x2c8>)
    181a:	681b      	ldr	r3, [r3, #0]
    181c:	2b01      	cmp	r3, #1
    181e:	f000 80c5 	beq.w	19ac <IRQ129_Handler+0x1e8>
        {
            Dma2Tc0_IrqHandler();
        }
    }
    /* DMA2 ch.1 Tx completed */
    if (Reset == bM4_DMA2_INTMASK1_MSKTC1)
    1822:	4b9b      	ldr	r3, [pc, #620]	; (1a90 <IRQ129_Handler+0x2cc>)
    1824:	681b      	ldr	r3, [r3, #0]
    1826:	b923      	cbnz	r3, 1832 <IRQ129_Handler+0x6e>
    {
        if ((Set == bM4_DMA2_INTSTAT1_TC1) && (VSSEL129 & BIT_MASK_05))
    1828:	4b9a      	ldr	r3, [pc, #616]	; (1a94 <IRQ129_Handler+0x2d0>)
    182a:	681b      	ldr	r3, [r3, #0]
    182c:	2b01      	cmp	r3, #1
    182e:	f000 80c4 	beq.w	19ba <IRQ129_Handler+0x1f6>
        {
            Dma2Tc1_IrqHandler();
        }
    }
    /* DMA2 ch.2 Tx completed */
    if (Reset == bM4_DMA2_INTMASK1_MSKTC2)
    1832:	4b99      	ldr	r3, [pc, #612]	; (1a98 <IRQ129_Handler+0x2d4>)
    1834:	681b      	ldr	r3, [r3, #0]
    1836:	b923      	cbnz	r3, 1842 <IRQ129_Handler+0x7e>
    {
        if ((Set == bM4_DMA2_INTSTAT1_TC2) && (VSSEL129 & BIT_MASK_06))
    1838:	4b98      	ldr	r3, [pc, #608]	; (1a9c <IRQ129_Handler+0x2d8>)
    183a:	681b      	ldr	r3, [r3, #0]
    183c:	2b01      	cmp	r3, #1
    183e:	f000 80c3 	beq.w	19c8 <IRQ129_Handler+0x204>
        {
            Dma2Tc2_IrqHandler();
        }
    }
    /* DMA2 ch.3 Tx completed */
    if (Reset == bM4_DMA2_INTMASK1_MSKTC3)
    1842:	4b97      	ldr	r3, [pc, #604]	; (1aa0 <IRQ129_Handler+0x2dc>)
    1844:	681b      	ldr	r3, [r3, #0]
    1846:	b923      	cbnz	r3, 1852 <IRQ129_Handler+0x8e>
    {
        if ((Set == bM4_DMA2_INTSTAT1_TC3) && (VSSEL129 & BIT_MASK_07))
    1848:	4b96      	ldr	r3, [pc, #600]	; (1aa4 <IRQ129_Handler+0x2e0>)
    184a:	681b      	ldr	r3, [r3, #0]
    184c:	2b01      	cmp	r3, #1
    184e:	f000 80c2 	beq.w	19d6 <IRQ129_Handler+0x212>
        {
            Dma2Tc3_IrqHandler();
        }
    }
    /* DMA1 ch.0 Block Tx completed */
    if (Reset == bM4_DMA1_INTMASK1_MSKBTC0)
    1852:	4b95      	ldr	r3, [pc, #596]	; (1aa8 <IRQ129_Handler+0x2e4>)
    1854:	681b      	ldr	r3, [r3, #0]
    1856:	b923      	cbnz	r3, 1862 <IRQ129_Handler+0x9e>
    {
        if ((Set == bM4_DMA1_INTSTAT1_BTC0) && (VSSEL129 & BIT_MASK_08))
    1858:	4b94      	ldr	r3, [pc, #592]	; (1aac <IRQ129_Handler+0x2e8>)
    185a:	681b      	ldr	r3, [r3, #0]
    185c:	2b01      	cmp	r3, #1
    185e:	f000 80c1 	beq.w	19e4 <IRQ129_Handler+0x220>
        {
            Dma1Btc0_IrqHandler();
        }
    }
    /* DMA1 ch.1 Block Tx completed */
    if (Reset == bM4_DMA1_INTMASK1_MSKBTC1)
    1862:	4b93      	ldr	r3, [pc, #588]	; (1ab0 <IRQ129_Handler+0x2ec>)
    1864:	681b      	ldr	r3, [r3, #0]
    1866:	b923      	cbnz	r3, 1872 <IRQ129_Handler+0xae>
    {
        if ((Set == bM4_DMA1_INTSTAT1_BTC1) && (VSSEL129 & BIT_MASK_09))
    1868:	4b92      	ldr	r3, [pc, #584]	; (1ab4 <IRQ129_Handler+0x2f0>)
    186a:	681b      	ldr	r3, [r3, #0]
    186c:	2b01      	cmp	r3, #1
    186e:	f000 80c0 	beq.w	19f2 <IRQ129_Handler+0x22e>
        {
            Dma1Btc1_IrqHandler();
        }
    }
    /* DMA1 ch.2 Block Tx completed */
    if (Reset == bM4_DMA1_INTMASK1_MSKBTC2)
    1872:	4b91      	ldr	r3, [pc, #580]	; (1ab8 <IRQ129_Handler+0x2f4>)
    1874:	681b      	ldr	r3, [r3, #0]
    1876:	b923      	cbnz	r3, 1882 <IRQ129_Handler+0xbe>
    {
        if ((Set == bM4_DMA1_INTSTAT1_BTC2) && (VSSEL129 & BIT_MASK_10))
    1878:	4b90      	ldr	r3, [pc, #576]	; (1abc <IRQ129_Handler+0x2f8>)
    187a:	681b      	ldr	r3, [r3, #0]
    187c:	2b01      	cmp	r3, #1
    187e:	f000 80bf 	beq.w	1a00 <IRQ129_Handler+0x23c>
        {
            Dma1Btc2_IrqHandler();
        }
    }
    /* DMA1 ch.3 Block Tx completed */
    if (Reset == bM4_DMA1_INTMASK1_MSKBTC3)
    1882:	4b8f      	ldr	r3, [pc, #572]	; (1ac0 <IRQ129_Handler+0x2fc>)
    1884:	681b      	ldr	r3, [r3, #0]
    1886:	b923      	cbnz	r3, 1892 <IRQ129_Handler+0xce>
    {
        if ((Set == bM4_DMA1_INTSTAT1_BTC3) && (VSSEL129 & BIT_MASK_11))
    1888:	4b8e      	ldr	r3, [pc, #568]	; (1ac4 <IRQ129_Handler+0x300>)
    188a:	681b      	ldr	r3, [r3, #0]
    188c:	2b01      	cmp	r3, #1
    188e:	f000 80be 	beq.w	1a0e <IRQ129_Handler+0x24a>
        {
            Dma1Btc3_IrqHandler();
        }
    }
    /* DMA2 ch.0 Block Tx completed */
    if (Reset == bM4_DMA2_INTMASK1_MSKBTC0)
    1892:	4b8d      	ldr	r3, [pc, #564]	; (1ac8 <IRQ129_Handler+0x304>)
    1894:	681b      	ldr	r3, [r3, #0]
    1896:	b923      	cbnz	r3, 18a2 <IRQ129_Handler+0xde>
    {
        if ((Set == bM4_DMA2_INTSTAT1_BTC0) && (VSSEL129 & BIT_MASK_12))
    1898:	4b8c      	ldr	r3, [pc, #560]	; (1acc <IRQ129_Handler+0x308>)
    189a:	681b      	ldr	r3, [r3, #0]
    189c:	2b01      	cmp	r3, #1
    189e:	f000 80bd 	beq.w	1a1c <IRQ129_Handler+0x258>
        {
            Dma2Btc0_IrqHandler();
        }
    }
    /* DMA2 ch.1 Block Tx completed */
    if (Reset == bM4_DMA2_INTMASK1_MSKBTC1)
    18a2:	4b8b      	ldr	r3, [pc, #556]	; (1ad0 <IRQ129_Handler+0x30c>)
    18a4:	681b      	ldr	r3, [r3, #0]
    18a6:	b923      	cbnz	r3, 18b2 <IRQ129_Handler+0xee>
    {
        if ((Set == bM4_DMA1_INTSTAT1_BTC1) && (VSSEL129 & BIT_MASK_13))
    18a8:	4b82      	ldr	r3, [pc, #520]	; (1ab4 <IRQ129_Handler+0x2f0>)
    18aa:	681b      	ldr	r3, [r3, #0]
    18ac:	2b01      	cmp	r3, #1
    18ae:	f000 80bc 	beq.w	1a2a <IRQ129_Handler+0x266>
        {
            Dma2Btc1_IrqHandler();
        }
    }
    /* DMA2 ch.2 Block Tx completed */
    if (Reset == bM4_DMA2_INTMASK1_MSKBTC2)
    18b2:	4b88      	ldr	r3, [pc, #544]	; (1ad4 <IRQ129_Handler+0x310>)
    18b4:	681b      	ldr	r3, [r3, #0]
    18b6:	b923      	cbnz	r3, 18c2 <IRQ129_Handler+0xfe>
    {
        if ((Set == bM4_DMA1_INTSTAT1_BTC2) && (VSSEL129 & BIT_MASK_14))
    18b8:	4b80      	ldr	r3, [pc, #512]	; (1abc <IRQ129_Handler+0x2f8>)
    18ba:	681b      	ldr	r3, [r3, #0]
    18bc:	2b01      	cmp	r3, #1
    18be:	f000 80bb 	beq.w	1a38 <IRQ129_Handler+0x274>
        {
            Dma2Btc2_IrqHandler();
        }
    }
    /* DMA2 ch.3 Block Tx completed */
    if (Reset == bM4_DMA2_INTMASK1_MSKBTC3)
    18c2:	4b85      	ldr	r3, [pc, #532]	; (1ad8 <IRQ129_Handler+0x314>)
    18c4:	681b      	ldr	r3, [r3, #0]
    18c6:	b923      	cbnz	r3, 18d2 <IRQ129_Handler+0x10e>
    {
        if ((Set == bM4_DMA1_INTSTAT1_BTC3) && (VSSEL129 & BIT_MASK_15))
    18c8:	4b7e      	ldr	r3, [pc, #504]	; (1ac4 <IRQ129_Handler+0x300>)
    18ca:	681b      	ldr	r3, [r3, #0]
    18cc:	2b01      	cmp	r3, #1
    18ce:	f000 80ba 	beq.w	1a46 <IRQ129_Handler+0x282>
        {
            Dma2Btc3_IrqHandler();
        }
    }
    /* DMA1 Transfer/Request Error */
    u32Tmp1 = M4_DMA1->INTSTAT0;
    18d2:	4b82      	ldr	r3, [pc, #520]	; (1adc <IRQ129_Handler+0x318>)
    18d4:	685a      	ldr	r2, [r3, #4]
    u32Tmp2 = M4_DMA1->INTMASK0;
    18d6:	68db      	ldr	r3, [r3, #12]
    if ((u32Tmp1 & u32Tmp2) && (VSSEL129 & BIT_MASK_16))
    18d8:	421a      	tst	r2, r3
    18da:	d003      	beq.n	18e4 <IRQ129_Handler+0x120>
    18dc:	f414 3f80 	tst.w	r4, #65536	; 0x10000
    18e0:	f040 80b8 	bne.w	1a54 <IRQ129_Handler+0x290>
    {
        Dma1Err_IrqHandler();
    }
    /* DMA2 Transfer/Request Error */
    u32Tmp1 = M4_DMA2->INTSTAT0;
    18e4:	4b7e      	ldr	r3, [pc, #504]	; (1ae0 <IRQ129_Handler+0x31c>)
    18e6:	685a      	ldr	r2, [r3, #4]
    u32Tmp2 = M4_DMA2->INTMASK0;
    18e8:	68db      	ldr	r3, [r3, #12]
    if ((u32Tmp1 & u32Tmp2) && (VSSEL129 & BIT_MASK_17))
    18ea:	421a      	tst	r2, r3
    18ec:	d003      	beq.n	18f6 <IRQ129_Handler+0x132>
    18ee:	f414 3f00 	tst.w	r4, #131072	; 0x20000
    18f2:	f040 80b2 	bne.w	1a5a <IRQ129_Handler+0x296>
    {
        Dma2Err_IrqHandler();
    }
    /* EFM program/erase Error */
    if ((M4_EFM->FSR & 0x0Fu) && (VSSEL129 & BIT_MASK_18))
    18f6:	4b7b      	ldr	r3, [pc, #492]	; (1ae4 <IRQ129_Handler+0x320>)
    18f8:	691b      	ldr	r3, [r3, #16]
    18fa:	f013 0f0f 	tst.w	r3, #15
    18fe:	d003      	beq.n	1908 <IRQ129_Handler+0x144>
    1900:	f414 2f80 	tst.w	r4, #262144	; 0x40000
    1904:	f040 80ac 	bne.w	1a60 <IRQ129_Handler+0x29c>
    {
        EfmPgmEraseErr_IrqHandler();
    }
    /* EFM collision Error */
    if ((Set == bM4_EFM_FSR_RDCOLERR) && (VSSEL129 & BIT_MASK_19))
    1908:	4b77      	ldr	r3, [pc, #476]	; (1ae8 <IRQ129_Handler+0x324>)
    190a:	681b      	ldr	r3, [r3, #0]
    190c:	2b01      	cmp	r3, #1
    190e:	f000 80f7 	beq.w	1b00 <IRQ129_Handler+0x33c>
    {
        EfmColErr_IrqHandler();
    }
    /* EFM operate end */
    if ((Set == bM4_EFM_FSR_OPTEND) && (VSSEL129 & BIT_MASK_20))
    1912:	4b76      	ldr	r3, [pc, #472]	; (1aec <IRQ129_Handler+0x328>)
    1914:	681b      	ldr	r3, [r3, #0]
    1916:	2b01      	cmp	r3, #1
    1918:	f000 80f9 	beq.w	1b0e <IRQ129_Handler+0x34a>
    {
        EfmOpEnd_IrqHandler();
    }
    /* QSPI interrupt */
    if ((Set == M4_QSPI->SR_f.RAER) && (VSSEL129 & BIT_MASK_22))
    191c:	f04f 431c 	mov.w	r3, #2617245696	; 0x9c000000
    1920:	68db      	ldr	r3, [r3, #12]
    1922:	f013 0f80 	tst.w	r3, #128	; 0x80
    1926:	f040 80f9 	bne.w	1b1c <IRQ129_Handler+0x358>
    {
        QspiInt_IrqHandler();
    }
    /* DCU ch.1 */
    u32Tmp1 = M4_DCU1->INTSEL;
    192a:	4b71      	ldr	r3, [pc, #452]	; (1af0 <IRQ129_Handler+0x32c>)
    192c:	699a      	ldr	r2, [r3, #24]
    u32Tmp2 = M4_DCU1->FLAG;
    192e:	685b      	ldr	r3, [r3, #4]
    if ((u32Tmp1 & u32Tmp2) && (VSSEL129 & BIT_MASK_23))
    1930:	421a      	tst	r2, r3
    1932:	d003      	beq.n	193c <IRQ129_Handler+0x178>
    1934:	f414 0f00 	tst.w	r4, #8388608	; 0x800000
    1938:	f040 80f7 	bne.w	1b2a <IRQ129_Handler+0x366>
    {
        Dcu1_IrqHandler();
    }
    /* DCU ch.2 */
    u32Tmp1 = M4_DCU2->INTSEL;
    193c:	4b6d      	ldr	r3, [pc, #436]	; (1af4 <IRQ129_Handler+0x330>)
    193e:	699a      	ldr	r2, [r3, #24]
    u32Tmp2 = M4_DCU2->FLAG;
    1940:	685b      	ldr	r3, [r3, #4]
    if ((u32Tmp1 & u32Tmp2) && (VSSEL129 & BIT_MASK_24))
    1942:	421a      	tst	r2, r3
    1944:	d003      	beq.n	194e <IRQ129_Handler+0x18a>
    1946:	f014 7f80 	tst.w	r4, #16777216	; 0x1000000
    194a:	f040 80f1 	bne.w	1b30 <IRQ129_Handler+0x36c>
    {
        Dcu2_IrqHandler();
    }
    /* DCU ch.3 */
    u32Tmp1 = M4_DCU3->INTSEL;
    194e:	4b6a      	ldr	r3, [pc, #424]	; (1af8 <IRQ129_Handler+0x334>)
    1950:	699a      	ldr	r2, [r3, #24]
    u32Tmp2 = M4_DCU3->FLAG;
    1952:	685b      	ldr	r3, [r3, #4]
    if ((u32Tmp1 & u32Tmp2) && (VSSEL129 & BIT_MASK_25))
    1954:	421a      	tst	r2, r3
    1956:	d003      	beq.n	1960 <IRQ129_Handler+0x19c>
    1958:	f014 7f00 	tst.w	r4, #33554432	; 0x2000000
    195c:	f040 80eb 	bne.w	1b36 <IRQ129_Handler+0x372>
    {
        Dcu3_IrqHandler();
    }
    /* DCU ch.4 */
    u32Tmp1 = M4_DCU4->INTSEL;
    1960:	4b66      	ldr	r3, [pc, #408]	; (1afc <IRQ129_Handler+0x338>)
    1962:	699a      	ldr	r2, [r3, #24]
    u32Tmp2 = M4_DCU4->FLAG;
    1964:	685b      	ldr	r3, [r3, #4]
    if ((u32Tmp1 & u32Tmp2) && (VSSEL129 & BIT_MASK_26))
    1966:	421a      	tst	r2, r3
    1968:	d003      	beq.n	1972 <IRQ129_Handler+0x1ae>
    196a:	f014 6f80 	tst.w	r4, #67108864	; 0x4000000
    196e:	f040 80e5 	bne.w	1b3c <IRQ129_Handler+0x378>
    {
        Dcu4_IrqHandler();
    }
}
    1972:	bd10      	pop	{r4, pc}
        if ((Set == bM4_DMA1_INTSTAT1_TC0) && (VSSEL129 & BIT_MASK_00))
    1974:	f014 0f01 	tst.w	r4, #1
    1978:	f43f af33 	beq.w	17e2 <IRQ129_Handler+0x1e>
            Dma1Tc0_IrqHandler();
    197c:	f3af 8000 	nop.w
    1980:	e72f      	b.n	17e2 <IRQ129_Handler+0x1e>
        if ((Set == bM4_DMA1_INTSTAT1_TC1)  && (VSSEL129 & BIT_MASK_01))
    1982:	f014 0f02 	tst.w	r4, #2
    1986:	f43f af34 	beq.w	17f2 <IRQ129_Handler+0x2e>
            Dma1Tc1_IrqHandler();
    198a:	f3af 8000 	nop.w
    198e:	e730      	b.n	17f2 <IRQ129_Handler+0x2e>
        if ((Set == bM4_DMA1_INTSTAT1_TC2)  && (VSSEL129 & BIT_MASK_02))
    1990:	f014 0f04 	tst.w	r4, #4
    1994:	f43f af35 	beq.w	1802 <IRQ129_Handler+0x3e>
            Dma1Tc2_IrqHandler();
    1998:	f3af 8000 	nop.w
    199c:	e731      	b.n	1802 <IRQ129_Handler+0x3e>
        if ((Set == bM4_DMA1_INTSTAT1_TC3)  && (VSSEL129 & BIT_MASK_03))
    199e:	f014 0f08 	tst.w	r4, #8
    19a2:	f43f af36 	beq.w	1812 <IRQ129_Handler+0x4e>
            Dma1Tc3_IrqHandler();
    19a6:	f3af 8000 	nop.w
    19aa:	e732      	b.n	1812 <IRQ129_Handler+0x4e>
        if ((Set == bM4_DMA2_INTSTAT1_TC0) && (VSSEL129 & BIT_MASK_04))
    19ac:	f014 0f10 	tst.w	r4, #16
    19b0:	f43f af37 	beq.w	1822 <IRQ129_Handler+0x5e>
            Dma2Tc0_IrqHandler();
    19b4:	f3af 8000 	nop.w
    19b8:	e733      	b.n	1822 <IRQ129_Handler+0x5e>
        if ((Set == bM4_DMA2_INTSTAT1_TC1) && (VSSEL129 & BIT_MASK_05))
    19ba:	f014 0f20 	tst.w	r4, #32
    19be:	f43f af38 	beq.w	1832 <IRQ129_Handler+0x6e>
            Dma2Tc1_IrqHandler();
    19c2:	f3af 8000 	nop.w
    19c6:	e734      	b.n	1832 <IRQ129_Handler+0x6e>
        if ((Set == bM4_DMA2_INTSTAT1_TC2) && (VSSEL129 & BIT_MASK_06))
    19c8:	f014 0f40 	tst.w	r4, #64	; 0x40
    19cc:	f43f af39 	beq.w	1842 <IRQ129_Handler+0x7e>
            Dma2Tc2_IrqHandler();
    19d0:	f3af 8000 	nop.w
    19d4:	e735      	b.n	1842 <IRQ129_Handler+0x7e>
        if ((Set == bM4_DMA2_INTSTAT1_TC3) && (VSSEL129 & BIT_MASK_07))
    19d6:	f014 0f80 	tst.w	r4, #128	; 0x80
    19da:	f43f af3a 	beq.w	1852 <IRQ129_Handler+0x8e>
            Dma2Tc3_IrqHandler();
    19de:	f3af 8000 	nop.w
    19e2:	e736      	b.n	1852 <IRQ129_Handler+0x8e>
        if ((Set == bM4_DMA1_INTSTAT1_BTC0) && (VSSEL129 & BIT_MASK_08))
    19e4:	f414 7f80 	tst.w	r4, #256	; 0x100
    19e8:	f43f af3b 	beq.w	1862 <IRQ129_Handler+0x9e>
            Dma1Btc0_IrqHandler();
    19ec:	f3af 8000 	nop.w
    19f0:	e737      	b.n	1862 <IRQ129_Handler+0x9e>
        if ((Set == bM4_DMA1_INTSTAT1_BTC1) && (VSSEL129 & BIT_MASK_09))
    19f2:	f414 7f00 	tst.w	r4, #512	; 0x200
    19f6:	f43f af3c 	beq.w	1872 <IRQ129_Handler+0xae>
            Dma1Btc1_IrqHandler();
    19fa:	f3af 8000 	nop.w
    19fe:	e738      	b.n	1872 <IRQ129_Handler+0xae>
        if ((Set == bM4_DMA1_INTSTAT1_BTC2) && (VSSEL129 & BIT_MASK_10))
    1a00:	f414 6f80 	tst.w	r4, #1024	; 0x400
    1a04:	f43f af3d 	beq.w	1882 <IRQ129_Handler+0xbe>
            Dma1Btc2_IrqHandler();
    1a08:	f3af 8000 	nop.w
    1a0c:	e739      	b.n	1882 <IRQ129_Handler+0xbe>
        if ((Set == bM4_DMA1_INTSTAT1_BTC3) && (VSSEL129 & BIT_MASK_11))
    1a0e:	f414 6f00 	tst.w	r4, #2048	; 0x800
    1a12:	f43f af3e 	beq.w	1892 <IRQ129_Handler+0xce>
            Dma1Btc3_IrqHandler();
    1a16:	f3af 8000 	nop.w
    1a1a:	e73a      	b.n	1892 <IRQ129_Handler+0xce>
        if ((Set == bM4_DMA2_INTSTAT1_BTC0) && (VSSEL129 & BIT_MASK_12))
    1a1c:	f414 5f80 	tst.w	r4, #4096	; 0x1000
    1a20:	f43f af3f 	beq.w	18a2 <IRQ129_Handler+0xde>
            Dma2Btc0_IrqHandler();
    1a24:	f3af 8000 	nop.w
    1a28:	e73b      	b.n	18a2 <IRQ129_Handler+0xde>
        if ((Set == bM4_DMA1_INTSTAT1_BTC1) && (VSSEL129 & BIT_MASK_13))
    1a2a:	f414 5f00 	tst.w	r4, #8192	; 0x2000
    1a2e:	f43f af40 	beq.w	18b2 <IRQ129_Handler+0xee>
            Dma2Btc1_IrqHandler();
    1a32:	f3af 8000 	nop.w
    1a36:	e73c      	b.n	18b2 <IRQ129_Handler+0xee>
        if ((Set == bM4_DMA1_INTSTAT1_BTC2) && (VSSEL129 & BIT_MASK_14))
    1a38:	f414 4f80 	tst.w	r4, #16384	; 0x4000
    1a3c:	f43f af41 	beq.w	18c2 <IRQ129_Handler+0xfe>
            Dma2Btc2_IrqHandler();
    1a40:	f3af 8000 	nop.w
    1a44:	e73d      	b.n	18c2 <IRQ129_Handler+0xfe>
        if ((Set == bM4_DMA1_INTSTAT1_BTC3) && (VSSEL129 & BIT_MASK_15))
    1a46:	f414 4f00 	tst.w	r4, #32768	; 0x8000
    1a4a:	f43f af42 	beq.w	18d2 <IRQ129_Handler+0x10e>
            Dma2Btc3_IrqHandler();
    1a4e:	f3af 8000 	nop.w
    1a52:	e73e      	b.n	18d2 <IRQ129_Handler+0x10e>
        Dma1Err_IrqHandler();
    1a54:	f3af 8000 	nop.w
    1a58:	e744      	b.n	18e4 <IRQ129_Handler+0x120>
        Dma2Err_IrqHandler();
    1a5a:	f3af 8000 	nop.w
    1a5e:	e74a      	b.n	18f6 <IRQ129_Handler+0x132>
        EfmPgmEraseErr_IrqHandler();
    1a60:	f3af 8000 	nop.w
    1a64:	e750      	b.n	1908 <IRQ129_Handler+0x144>
    1a66:	bf00      	nop
    1a68:	40051000 	andmi	r1, r5, r0
    1a6c:	42a60100 	adcmi	r0, r6, #0, 2
    1a70:	42a60204 	adcmi	r0, r6, #4, 4	; 0x40000000
    1a74:	42a60104 	adcmi	r0, r6, #4, 2
    1a78:	42a60208 	adcmi	r0, r6, #8, 4	; 0x80000000
    1a7c:	42a60108 	adcmi	r0, r6, #8, 2
    1a80:	42a6020c 	adcmi	r0, r6, #12, 4	; 0xc0000000
    1a84:	42a6010c 	adcmi	r0, r6, #12, 2
    1a88:	42a68200 	adcmi	r8, r6, #0, 4
    1a8c:	42a68100 	adcmi	r8, r6, #0, 2
    1a90:	42a68204 	adcmi	r8, r6, #4, 4	; 0x40000000
    1a94:	42a68104 	adcmi	r8, r6, #4, 2
    1a98:	42a68208 	adcmi	r8, r6, #8, 4	; 0x80000000
    1a9c:	42a68108 	adcmi	r8, r6, #8, 2
    1aa0:	42a6820c 	adcmi	r8, r6, #12, 4	; 0xc0000000
    1aa4:	42a6810c 	adcmi	r8, r6, #12, 2
    1aa8:	42a60240 	adcmi	r0, r6, #64, 4
    1aac:	42a60140 	adcmi	r0, r6, #64, 2
    1ab0:	42a60244 	adcmi	r0, r6, #68, 4	; 0x40000004
    1ab4:	42a60144 	adcmi	r0, r6, #68, 2
    1ab8:	42a60248 	adcmi	r0, r6, #72, 4	; 0x80000004
    1abc:	42a60148 	adcmi	r0, r6, #72, 2
    1ac0:	42a6024c 	adcmi	r0, r6, #76, 4	; 0xc0000004
    1ac4:	42a6014c 	adcmi	r0, r6, #76, 2
    1ac8:	42a68240 	adcmi	r8, r6, #64, 4
    1acc:	42a68140 	adcmi	r8, r6, #64, 2
    1ad0:	42a68244 	adcmi	r8, r6, #68, 4	; 0x40000004
    1ad4:	42a68248 	adcmi	r8, r6, #72, 4	; 0x80000004
    1ad8:	42a6824c 	adcmi	r8, r6, #76, 4	; 0xc0000004
    1adc:	40053000 	andmi	r3, r5, r0
    1ae0:	40053400 	andmi	r3, r5, r0, lsl #8
    1ae4:	40010400 	andmi	r0, r1, r0, lsl #8
    1ae8:	42208214 	eormi	r8, r0, #20, 4	; 0x40000001
    1aec:	42208210 	eormi	r8, r0, #16, 4
    1af0:	40052000 	andmi	r2, r5, r0
    1af4:	40052400 	andmi	r2, r5, r0, lsl #8
    1af8:	40052800 	andmi	r2, r5, r0, lsl #16
    1afc:	40052c00 	andmi	r2, r5, r0, lsl #24
    if ((Set == bM4_EFM_FSR_RDCOLERR) && (VSSEL129 & BIT_MASK_19))
    1b00:	f414 2f00 	tst.w	r4, #524288	; 0x80000
    1b04:	f43f af05 	beq.w	1912 <IRQ129_Handler+0x14e>
        EfmColErr_IrqHandler();
    1b08:	f3af 8000 	nop.w
    1b0c:	e701      	b.n	1912 <IRQ129_Handler+0x14e>
    if ((Set == bM4_EFM_FSR_OPTEND) && (VSSEL129 & BIT_MASK_20))
    1b0e:	f414 1f80 	tst.w	r4, #1048576	; 0x100000
    1b12:	f43f af03 	beq.w	191c <IRQ129_Handler+0x158>
        EfmOpEnd_IrqHandler();
    1b16:	f3af 8000 	nop.w
    1b1a:	e6ff      	b.n	191c <IRQ129_Handler+0x158>
    if ((Set == M4_QSPI->SR_f.RAER) && (VSSEL129 & BIT_MASK_22))
    1b1c:	f414 0f80 	tst.w	r4, #4194304	; 0x400000
    1b20:	f43f af03 	beq.w	192a <IRQ129_Handler+0x166>
        QspiInt_IrqHandler();
    1b24:	f3af 8000 	nop.w
    1b28:	e6ff      	b.n	192a <IRQ129_Handler+0x166>
        Dcu1_IrqHandler();
    1b2a:	f3af 8000 	nop.w
    1b2e:	e705      	b.n	193c <IRQ129_Handler+0x178>
        Dcu2_IrqHandler();
    1b30:	f3af 8000 	nop.w
    1b34:	e70b      	b.n	194e <IRQ129_Handler+0x18a>
        Dcu3_IrqHandler();
    1b36:	f3af 8000 	nop.w
    1b3a:	e711      	b.n	1960 <IRQ129_Handler+0x19c>
        Dcu4_IrqHandler();
    1b3c:	f3af 8000 	nop.w
}
    1b40:	e717      	b.n	1972 <IRQ129_Handler+0x1ae>

00001b42 <IRQ130_Handler>:
 *******************************************************************************
 ** \brief Int No.130 share IRQ handler
 **
 ******************************************************************************/
void IRQ130_Handler(void)
{
    1b42:	b510      	push	{r4, lr}
    uint32_t VSSEL130 = M4_INTC->VSSEL130;
    1b44:	4b2f      	ldr	r3, [pc, #188]	; (1c04 <IRQ130_Handler+0xc2>)
    1b46:	f8d3 4264 	ldr.w	r4, [r3, #612]	; 0x264
    /* Timer0 Ch. 1 A compare match */
    if (Set == bM4_TMR01_BCONR_INTENA)
    1b4a:	4b2f      	ldr	r3, [pc, #188]	; (1c08 <IRQ130_Handler+0xc6>)
    1b4c:	681b      	ldr	r3, [r3, #0]
    1b4e:	2b01      	cmp	r3, #1
    1b50:	d01c      	beq.n	1b8c <IRQ130_Handler+0x4a>
        {
            Timer01GCMA_IrqHandler();
        }
    }
    /* Timer0 Ch. 1 B compare match */
    if (Set == bM4_TMR01_BCONR_INTENB)
    1b52:	4b2e      	ldr	r3, [pc, #184]	; (1c0c <IRQ130_Handler+0xca>)
    1b54:	681b      	ldr	r3, [r3, #0]
    1b56:	2b01      	cmp	r3, #1
    1b58:	d022      	beq.n	1ba0 <IRQ130_Handler+0x5e>
        {
            Timer01GCMB_IrqHandler();
        }
    }
    /* Timer0 Ch. 2 A compare match */
    if (Set == bM4_TMR02_BCONR_INTENA)
    1b5a:	4b2d      	ldr	r3, [pc, #180]	; (1c10 <IRQ130_Handler+0xce>)
    1b5c:	681b      	ldr	r3, [r3, #0]
    1b5e:	2b01      	cmp	r3, #1
    1b60:	d028      	beq.n	1bb4 <IRQ130_Handler+0x72>
        {
            Timer02GCMA_IrqHandler();
        }
    }
    /* Timer0 Ch. 2 B compare match */
    if (Set == bM4_TMR02_BCONR_INTENB)
    1b62:	4b2c      	ldr	r3, [pc, #176]	; (1c14 <IRQ130_Handler+0xd2>)
    1b64:	681b      	ldr	r3, [r3, #0]
    1b66:	2b01      	cmp	r3, #1
    1b68:	d02e      	beq.n	1bc8 <IRQ130_Handler+0x86>
        {
            Timer02GCMB_IrqHandler();
        }
    }
    /* Main-OSC stop */
    if (Set == bM4_SYSREG_CMU_XTALSTDCR_XTALSTDIE)
    1b6a:	4b2b      	ldr	r3, [pc, #172]	; (1c18 <IRQ130_Handler+0xd6>)
    1b6c:	681b      	ldr	r3, [r3, #0]
    1b6e:	2b01      	cmp	r3, #1
    1b70:	d034      	beq.n	1bdc <IRQ130_Handler+0x9a>
        {
            MainOscStop_IrqHandler();
        }
    }
    /* Wakeup timer */
    if ((Set == bM4_WKTM_CR_WKOVF) && (VSSEL130 & BIT_MASK_22))
    1b72:	4b2a      	ldr	r3, [pc, #168]	; (1c1c <IRQ130_Handler+0xda>)
    1b74:	681b      	ldr	r3, [r3, #0]
    1b76:	2b01      	cmp	r3, #1
    1b78:	d03a      	beq.n	1bf0 <IRQ130_Handler+0xae>
    {
        WakeupTimer_IrqHandler();
    }
    /* SWDT */
    if ((M4_SWDT->SR & (BIT_MASK_16 | BIT_MASK_17)) && (VSSEL130 & BIT_MASK_23))
    1b7a:	4b29      	ldr	r3, [pc, #164]	; (1c20 <IRQ130_Handler+0xde>)
    1b7c:	685b      	ldr	r3, [r3, #4]
    1b7e:	f413 3f40 	tst.w	r3, #196608	; 0x30000
    1b82:	d002      	beq.n	1b8a <IRQ130_Handler+0x48>
    1b84:	f414 0f00 	tst.w	r4, #8388608	; 0x800000
    1b88:	d138      	bne.n	1bfc <IRQ130_Handler+0xba>
    {
        Swdt_IrqHandler();
    }
}
    1b8a:	bd10      	pop	{r4, pc}
        if ((Set == bM4_TMR01_STFLR_CMAF) && (VSSEL130 & BIT_MASK_00))
    1b8c:	4b25      	ldr	r3, [pc, #148]	; (1c24 <IRQ130_Handler+0xe2>)
    1b8e:	681b      	ldr	r3, [r3, #0]
    1b90:	2b01      	cmp	r3, #1
    1b92:	d1de      	bne.n	1b52 <IRQ130_Handler+0x10>
    1b94:	f014 0f01 	tst.w	r4, #1
    1b98:	d0db      	beq.n	1b52 <IRQ130_Handler+0x10>
            Timer01GCMA_IrqHandler();
    1b9a:	f3af 8000 	nop.w
    1b9e:	e7d8      	b.n	1b52 <IRQ130_Handler+0x10>
        if ((Set == bM4_TMR01_STFLR_CMBF) && (VSSEL130 & BIT_MASK_01))
    1ba0:	4b21      	ldr	r3, [pc, #132]	; (1c28 <IRQ130_Handler+0xe6>)
    1ba2:	681b      	ldr	r3, [r3, #0]
    1ba4:	2b01      	cmp	r3, #1
    1ba6:	d1d8      	bne.n	1b5a <IRQ130_Handler+0x18>
    1ba8:	f014 0f02 	tst.w	r4, #2
    1bac:	d0d5      	beq.n	1b5a <IRQ130_Handler+0x18>
            Timer01GCMB_IrqHandler();
    1bae:	f3af 8000 	nop.w
    1bb2:	e7d2      	b.n	1b5a <IRQ130_Handler+0x18>
        if ((Set == bM4_TMR02_STFLR_CMAF) && (VSSEL130 & BIT_MASK_02))
    1bb4:	4b1d      	ldr	r3, [pc, #116]	; (1c2c <IRQ130_Handler+0xea>)
    1bb6:	681b      	ldr	r3, [r3, #0]
    1bb8:	2b01      	cmp	r3, #1
    1bba:	d1d2      	bne.n	1b62 <IRQ130_Handler+0x20>
    1bbc:	f014 0f04 	tst.w	r4, #4
    1bc0:	d0cf      	beq.n	1b62 <IRQ130_Handler+0x20>
            Timer02GCMA_IrqHandler();
    1bc2:	f3af 8000 	nop.w
    1bc6:	e7cc      	b.n	1b62 <IRQ130_Handler+0x20>
        if ((Set == bM4_TMR02_STFLR_CMBF) && (VSSEL130 & BIT_MASK_03))
    1bc8:	4b19      	ldr	r3, [pc, #100]	; (1c30 <IRQ130_Handler+0xee>)
    1bca:	681b      	ldr	r3, [r3, #0]
    1bcc:	2b01      	cmp	r3, #1
    1bce:	d1cc      	bne.n	1b6a <IRQ130_Handler+0x28>
    1bd0:	f014 0f08 	tst.w	r4, #8
    1bd4:	d0c9      	beq.n	1b6a <IRQ130_Handler+0x28>
            Timer02GCMB_IrqHandler();
    1bd6:	f3af 8000 	nop.w
    1bda:	e7c6      	b.n	1b6a <IRQ130_Handler+0x28>
        if ((Set == bM4_SYSREG_CMU_XTALSTDSR_XTALSTDF) && (VSSEL130 & BIT_MASK_21))
    1bdc:	4b15      	ldr	r3, [pc, #84]	; (1c34 <IRQ130_Handler+0xf2>)
    1bde:	681b      	ldr	r3, [r3, #0]
    1be0:	2b01      	cmp	r3, #1
    1be2:	d1c6      	bne.n	1b72 <IRQ130_Handler+0x30>
    1be4:	f414 1f00 	tst.w	r4, #2097152	; 0x200000
    1be8:	d0c3      	beq.n	1b72 <IRQ130_Handler+0x30>
            MainOscStop_IrqHandler();
    1bea:	f3af 8000 	nop.w
    1bee:	e7c0      	b.n	1b72 <IRQ130_Handler+0x30>
    if ((Set == bM4_WKTM_CR_WKOVF) && (VSSEL130 & BIT_MASK_22))
    1bf0:	f414 0f80 	tst.w	r4, #4194304	; 0x400000
    1bf4:	d0c1      	beq.n	1b7a <IRQ130_Handler+0x38>
        WakeupTimer_IrqHandler();
    1bf6:	f3af 8000 	nop.w
    1bfa:	e7be      	b.n	1b7a <IRQ130_Handler+0x38>
        Swdt_IrqHandler();
    1bfc:	f3af 8000 	nop.w
}
    1c00:	e7c3      	b.n	1b8a <IRQ130_Handler+0x48>
    1c02:	bf00      	nop
    1c04:	40051000 	andmi	r1, r5, r0
    1c08:	42480208 	submi	r0, r8, #8, 4	; 0x80000000
    1c0c:	42480248 	submi	r0, r8, #72, 4	; 0x80000004
    1c10:	42488208 	submi	r8, r8, #8, 4	; 0x80000000
    1c14:	42488248 	submi	r8, r8, #72, 4	; 0x80000004
    1c18:	42a80800 	adcmi	r0, r8, #0, 16
    1c1c:	42988030 	addsmi	r8, r8, #48	; 0x30
    1c20:	40049400 	andmi	r9, r4, r0, lsl #8
    1c24:	42480280 	submi	r0, r8, #128, 4
    1c28:	424802c0 	submi	r0, r8, #192, 4
    1c2c:	42488280 	submi	r8, r8, #128, 4
    1c30:	424882c0 	submi	r8, r8, #192, 4
    1c34:	42a80820 	adcmi	r0, r8, #32, 16	; 0x200000

00001c38 <IRQ131_Handler>:
 *******************************************************************************
 ** \brief Int No.131 share IRQ handler
 **
 ******************************************************************************/
void IRQ131_Handler(void)
{
    1c38:	b510      	push	{r4, lr}
    uint32_t VSSEL131 = M4_INTC->VSSEL131;
    1c3a:	4bb9      	ldr	r3, [pc, #740]	; (1f20 <IRQ131_Handler+0x2e8>)
    1c3c:	f8d3 4268 	ldr.w	r4, [r3, #616]	; 0x268
    uint32_t u32Tmp1 = 0ul;
    uint32_t u32Tmp2 = 0ul;
    /* Timer6 Ch.1 A compare match */
    if (Set == bM4_TMR61_ICONR_INTENA)
    1c40:	4bb8      	ldr	r3, [pc, #736]	; (1f24 <IRQ131_Handler+0x2ec>)
    1c42:	681b      	ldr	r3, [r3, #0]
    1c44:	2b01      	cmp	r3, #1
    1c46:	f000 8086 	beq.w	1d56 <IRQ131_Handler+0x11e>
        {
            Timer61GCMA_IrqHandler();
        }
    }
    /* Timer6 Ch.1 B compare match */
    if (Set == bM4_TMR61_ICONR_INTENB)
    1c4a:	4bb7      	ldr	r3, [pc, #732]	; (1f28 <IRQ131_Handler+0x2f0>)
    1c4c:	681b      	ldr	r3, [r3, #0]
    1c4e:	2b01      	cmp	r3, #1
    1c50:	f000 808d 	beq.w	1d6e <IRQ131_Handler+0x136>
        {
            Timer61GCMB_IrqHandler();
        }
    }
    /* Timer6 Ch.1 C compare match */
    if (Set == bM4_TMR61_ICONR_INTENC)
    1c54:	4bb5      	ldr	r3, [pc, #724]	; (1f2c <IRQ131_Handler+0x2f4>)
    1c56:	681b      	ldr	r3, [r3, #0]
    1c58:	2b01      	cmp	r3, #1
    1c5a:	f000 8094 	beq.w	1d86 <IRQ131_Handler+0x14e>
        {
            Timer61GCMC_IrqHandler();
        }
    }
    /* Timer6 Ch.1 D compare match */
    if (Set == bM4_TMR61_ICONR_INTEND)
    1c5e:	4bb4      	ldr	r3, [pc, #720]	; (1f30 <IRQ131_Handler+0x2f8>)
    1c60:	681b      	ldr	r3, [r3, #0]
    1c62:	2b01      	cmp	r3, #1
    1c64:	f000 809b 	beq.w	1d9e <IRQ131_Handler+0x166>
        {
            Timer61GCMD_IrqHandler();
        }
    }
    /* Timer6 Ch.1 E compare match */
    if (Set == bM4_TMR61_ICONR_INTENE)
    1c68:	4bb2      	ldr	r3, [pc, #712]	; (1f34 <IRQ131_Handler+0x2fc>)
    1c6a:	681b      	ldr	r3, [r3, #0]
    1c6c:	2b01      	cmp	r3, #1
    1c6e:	f000 80a2 	beq.w	1db6 <IRQ131_Handler+0x17e>
        {
            Timer61GCME_IrqHandler();
        }
    }
    /* Timer6 Ch.1 F compare match */
    if (Set == bM4_TMR61_ICONR_INTENF)
    1c72:	4bb1      	ldr	r3, [pc, #708]	; (1f38 <IRQ131_Handler+0x300>)
    1c74:	681b      	ldr	r3, [r3, #0]
    1c76:	2b01      	cmp	r3, #1
    1c78:	f000 80a9 	beq.w	1dce <IRQ131_Handler+0x196>
        {
            Timer61GCMF_IrqHandler();
        }
    }
    /* Timer6 Ch.1 overflow */
    if (Set == bM4_TMR61_ICONR_INTENOVF)
    1c7c:	4baf      	ldr	r3, [pc, #700]	; (1f3c <IRQ131_Handler+0x304>)
    1c7e:	681b      	ldr	r3, [r3, #0]
    1c80:	2b01      	cmp	r3, #1
    1c82:	f000 80b0 	beq.w	1de6 <IRQ131_Handler+0x1ae>
        {
            Timer61GOV_IrqHandler();
        }
    }
    /* Timer6 Ch.1 underflow */
    if (Set == bM4_TMR61_ICONR_INTENUDF)
    1c86:	4bae      	ldr	r3, [pc, #696]	; (1f40 <IRQ131_Handler+0x308>)
    1c88:	681b      	ldr	r3, [r3, #0]
    1c8a:	2b01      	cmp	r3, #1
    1c8c:	f000 80b7 	beq.w	1dfe <IRQ131_Handler+0x1c6>
        {
            Timer61GUD_IrqHandler();
        }
    }
    /* Timer6 Ch.1 dead time */
    if (Set == bM4_TMR61_ICONR_INTENDTE)
    1c90:	4bac      	ldr	r3, [pc, #688]	; (1f44 <IRQ131_Handler+0x30c>)
    1c92:	681b      	ldr	r3, [r3, #0]
    1c94:	2b01      	cmp	r3, #1
    1c96:	f000 80be 	beq.w	1e16 <IRQ131_Handler+0x1de>
        {
            Timer61GDT_IrqHandler();
        }
    }
    /* Timer6 Ch.1 A up-down compare match */
    u32Tmp1 = (M4_TMR61->ICONR & (BIT_MASK_16 | BIT_MASK_17)) >> 7u;
    1c9a:	4aab      	ldr	r2, [pc, #684]	; (1f48 <IRQ131_Handler+0x310>)
    1c9c:	6d51      	ldr	r1, [r2, #84]	; 0x54
    u32Tmp2 = M4_TMR61->STFLR & (BIT_MASK_09 | BIT_MASK_10);
    1c9e:	6f13      	ldr	r3, [r2, #112]	; 0x70
    if ((u32Tmp1 & u32Tmp2) && (VSSEL131 & BIT_MASK_11))
    1ca0:	ea03 13d1 	and.w	r3, r3, r1, lsr #7
    1ca4:	f413 6fc0 	tst.w	r3, #1536	; 0x600
    1ca8:	d003      	beq.n	1cb2 <IRQ131_Handler+0x7a>
    1caa:	f414 6f00 	tst.w	r4, #2048	; 0x800
    1cae:	f040 80be 	bne.w	1e2e <IRQ131_Handler+0x1f6>
    {
        Timer61SCMA_IrqHandler();
    }
    /* Timer6 Ch.1 B up-down compare match */
    u32Tmp1 = (M4_TMR61->ICONR & (BIT_MASK_18 | BIT_MASK_19)) >> 7u;
    1cb2:	4aa5      	ldr	r2, [pc, #660]	; (1f48 <IRQ131_Handler+0x310>)
    1cb4:	6d51      	ldr	r1, [r2, #84]	; 0x54
    u32Tmp2 = M4_TMR61->STFLR & (BIT_MASK_11 | BIT_MASK_12);
    1cb6:	6f13      	ldr	r3, [r2, #112]	; 0x70
    if ((u32Tmp1 & u32Tmp2) && (VSSEL131 & BIT_MASK_12))
    1cb8:	ea03 13d1 	and.w	r3, r3, r1, lsr #7
    1cbc:	f413 5fc0 	tst.w	r3, #6144	; 0x1800
    1cc0:	d003      	beq.n	1cca <IRQ131_Handler+0x92>
    1cc2:	f414 5f80 	tst.w	r4, #4096	; 0x1000
    1cc6:	f040 80b5 	bne.w	1e34 <IRQ131_Handler+0x1fc>
    {
        Timer61SCMB_IrqHandler();
    }
    /* Timer6 Ch.2 A compare match */
    if (Set == bM4_TMR62_ICONR_INTENA)
    1cca:	4ba0      	ldr	r3, [pc, #640]	; (1f4c <IRQ131_Handler+0x314>)
    1ccc:	681b      	ldr	r3, [r3, #0]
    1cce:	2b01      	cmp	r3, #1
    1cd0:	f000 80b3 	beq.w	1e3a <IRQ131_Handler+0x202>
        {
            Timer62GCMA_IrqHandler();
        }
    }
    /* Timer6 Ch.2 B compare match */
    if (Set == bM4_TMR62_ICONR_INTENB)
    1cd4:	4b9e      	ldr	r3, [pc, #632]	; (1f50 <IRQ131_Handler+0x318>)
    1cd6:	681b      	ldr	r3, [r3, #0]
    1cd8:	2b01      	cmp	r3, #1
    1cda:	f000 80ba 	beq.w	1e52 <IRQ131_Handler+0x21a>
        {
            Timer62GCMB_IrqHandler();
        }
    }
    /* Timer6 Ch.2 C compare match */
    if (Set == bM4_TMR62_ICONR_INTENC)
    1cde:	4b9d      	ldr	r3, [pc, #628]	; (1f54 <IRQ131_Handler+0x31c>)
    1ce0:	681b      	ldr	r3, [r3, #0]
    1ce2:	2b01      	cmp	r3, #1
    1ce4:	f000 80c1 	beq.w	1e6a <IRQ131_Handler+0x232>
        {
            Timer62GCMC_IrqHandler();
        }
    }
    /* Timer6 Ch.2 D compare match */
    if (Set == bM4_TMR62_ICONR_INTEND)
    1ce8:	4b9b      	ldr	r3, [pc, #620]	; (1f58 <IRQ131_Handler+0x320>)
    1cea:	681b      	ldr	r3, [r3, #0]
    1cec:	2b01      	cmp	r3, #1
    1cee:	f000 80c8 	beq.w	1e82 <IRQ131_Handler+0x24a>
        {
            Timer62GCMD_IrqHandler();
        }
    }
    /* Timer6 Ch.2 E compare match */
    if (Set == bM4_TMR62_ICONR_INTENE)
    1cf2:	4b9a      	ldr	r3, [pc, #616]	; (1f5c <IRQ131_Handler+0x324>)
    1cf4:	681b      	ldr	r3, [r3, #0]
    1cf6:	2b01      	cmp	r3, #1
    1cf8:	f000 80cf 	beq.w	1e9a <IRQ131_Handler+0x262>
        {
            Timer62GCME_IrqHandler();
        }
    }
    /* Timer6 Ch.2 F compare match */
    if (Set == bM4_TMR62_ICONR_INTENF)
    1cfc:	4b98      	ldr	r3, [pc, #608]	; (1f60 <IRQ131_Handler+0x328>)
    1cfe:	681b      	ldr	r3, [r3, #0]
    1d00:	2b01      	cmp	r3, #1
    1d02:	f000 80d6 	beq.w	1eb2 <IRQ131_Handler+0x27a>
        {
            Timer62GCMF_IrqHandler();
        }
    }
    /* Timer6 Ch.2 overflow */
    if (Set == bM4_TMR62_ICONR_INTENOVF)
    1d06:	4b97      	ldr	r3, [pc, #604]	; (1f64 <IRQ131_Handler+0x32c>)
    1d08:	681b      	ldr	r3, [r3, #0]
    1d0a:	2b01      	cmp	r3, #1
    1d0c:	f000 80dd 	beq.w	1eca <IRQ131_Handler+0x292>
        {
            Timer62GOV_IrqHandler();
        }
    }
    /* Timer6 Ch.2 underflow */
    if (Set == bM4_TMR62_ICONR_INTENUDF)
    1d10:	4b95      	ldr	r3, [pc, #596]	; (1f68 <IRQ131_Handler+0x330>)
    1d12:	681b      	ldr	r3, [r3, #0]
    1d14:	2b01      	cmp	r3, #1
    1d16:	f000 80e4 	beq.w	1ee2 <IRQ131_Handler+0x2aa>
        {
            Timer62GUD_IrqHandler();
        }
    }
    /* Timer6 Ch.2 dead time */
    if (Set == bM4_TMR62_ICONR_INTENDTE)
    1d1a:	4b94      	ldr	r3, [pc, #592]	; (1f6c <IRQ131_Handler+0x334>)
    1d1c:	681b      	ldr	r3, [r3, #0]
    1d1e:	2b01      	cmp	r3, #1
    1d20:	f000 80eb 	beq.w	1efa <IRQ131_Handler+0x2c2>
        {
            Timer62GDT_IrqHandler();
        }
    }
    /* Timer6 Ch.2 A up-down compare match */
    u32Tmp1 = (M4_TMR62->ICONR & (BIT_MASK_16 | BIT_MASK_17)) >> 7u;
    1d24:	4a92      	ldr	r2, [pc, #584]	; (1f70 <IRQ131_Handler+0x338>)
    1d26:	6d51      	ldr	r1, [r2, #84]	; 0x54
    u32Tmp2 = M4_TMR62->STFLR & (BIT_MASK_09 | BIT_MASK_10);
    1d28:	6f13      	ldr	r3, [r2, #112]	; 0x70
    if ((u32Tmp1 & u32Tmp2) && (VSSEL131 & BIT_MASK_27))
    1d2a:	ea03 13d1 	and.w	r3, r3, r1, lsr #7
    1d2e:	f413 6fc0 	tst.w	r3, #1536	; 0x600
    1d32:	d003      	beq.n	1d3c <IRQ131_Handler+0x104>
    1d34:	f014 6f00 	tst.w	r4, #134217728	; 0x8000000
    1d38:	f040 80eb 	bne.w	1f12 <IRQ131_Handler+0x2da>
    {
        Timer62SCMA_IrqHandler();
    }
    /* Timer6 Ch.2 B up-down compare match */
    u32Tmp1 = (M4_TMR62->ICONR & (BIT_MASK_18 | BIT_MASK_19)) >> 7u;
    1d3c:	4a8c      	ldr	r2, [pc, #560]	; (1f70 <IRQ131_Handler+0x338>)
    1d3e:	6d51      	ldr	r1, [r2, #84]	; 0x54
    u32Tmp2 = M4_TMR62->STFLR & (BIT_MASK_11 | BIT_MASK_12);
    1d40:	6f13      	ldr	r3, [r2, #112]	; 0x70
    if ((u32Tmp1 & u32Tmp2) && (VSSEL131 & BIT_MASK_28))
    1d42:	ea03 13d1 	and.w	r3, r3, r1, lsr #7
    1d46:	f413 5fc0 	tst.w	r3, #6144	; 0x1800
    1d4a:	d003      	beq.n	1d54 <IRQ131_Handler+0x11c>
    1d4c:	f014 5f80 	tst.w	r4, #268435456	; 0x10000000
    1d50:	f040 80e2 	bne.w	1f18 <IRQ131_Handler+0x2e0>
    {
        Timer62SCMB_IrqHandler();
    }
}
    1d54:	bd10      	pop	{r4, pc}
        if ((Set == bM4_TMR61_STFLR_CMAF) && (VSSEL131 & BIT_MASK_00))
    1d56:	4b87      	ldr	r3, [pc, #540]	; (1f74 <IRQ131_Handler+0x33c>)
    1d58:	681b      	ldr	r3, [r3, #0]
    1d5a:	2b01      	cmp	r3, #1
    1d5c:	f47f af75 	bne.w	1c4a <IRQ131_Handler+0x12>
    1d60:	f014 0f01 	tst.w	r4, #1
    1d64:	f43f af71 	beq.w	1c4a <IRQ131_Handler+0x12>
            Timer61GCMA_IrqHandler();
    1d68:	f3af 8000 	nop.w
    1d6c:	e76d      	b.n	1c4a <IRQ131_Handler+0x12>
        if ((Set == bM4_TMR61_STFLR_CMBF) && (VSSEL131 & BIT_MASK_01))
    1d6e:	4b82      	ldr	r3, [pc, #520]	; (1f78 <IRQ131_Handler+0x340>)
    1d70:	681b      	ldr	r3, [r3, #0]
    1d72:	2b01      	cmp	r3, #1
    1d74:	f47f af6e 	bne.w	1c54 <IRQ131_Handler+0x1c>
    1d78:	f014 0f02 	tst.w	r4, #2
    1d7c:	f43f af6a 	beq.w	1c54 <IRQ131_Handler+0x1c>
            Timer61GCMB_IrqHandler();
    1d80:	f3af 8000 	nop.w
    1d84:	e766      	b.n	1c54 <IRQ131_Handler+0x1c>
        if ((Set == bM4_TMR61_STFLR_CMCF) && (VSSEL131 & BIT_MASK_02))
    1d86:	4b7d      	ldr	r3, [pc, #500]	; (1f7c <IRQ131_Handler+0x344>)
    1d88:	681b      	ldr	r3, [r3, #0]
    1d8a:	2b01      	cmp	r3, #1
    1d8c:	f47f af67 	bne.w	1c5e <IRQ131_Handler+0x26>
    1d90:	f014 0f04 	tst.w	r4, #4
    1d94:	f43f af63 	beq.w	1c5e <IRQ131_Handler+0x26>
            Timer61GCMC_IrqHandler();
    1d98:	f3af 8000 	nop.w
    1d9c:	e75f      	b.n	1c5e <IRQ131_Handler+0x26>
        if ((Set == bM4_TMR61_STFLR_CMDF) && (VSSEL131 & BIT_MASK_03))
    1d9e:	4b78      	ldr	r3, [pc, #480]	; (1f80 <IRQ131_Handler+0x348>)
    1da0:	681b      	ldr	r3, [r3, #0]
    1da2:	2b01      	cmp	r3, #1
    1da4:	f47f af60 	bne.w	1c68 <IRQ131_Handler+0x30>
    1da8:	f014 0f08 	tst.w	r4, #8
    1dac:	f43f af5c 	beq.w	1c68 <IRQ131_Handler+0x30>
            Timer61GCMD_IrqHandler();
    1db0:	f3af 8000 	nop.w
    1db4:	e758      	b.n	1c68 <IRQ131_Handler+0x30>
        if ((Set == bM4_TMR61_STFLR_CMEF) && (VSSEL131 & BIT_MASK_04))
    1db6:	4b73      	ldr	r3, [pc, #460]	; (1f84 <IRQ131_Handler+0x34c>)
    1db8:	681b      	ldr	r3, [r3, #0]
    1dba:	2b01      	cmp	r3, #1
    1dbc:	f47f af59 	bne.w	1c72 <IRQ131_Handler+0x3a>
    1dc0:	f014 0f10 	tst.w	r4, #16
    1dc4:	f43f af55 	beq.w	1c72 <IRQ131_Handler+0x3a>
            Timer61GCME_IrqHandler();
    1dc8:	f3af 8000 	nop.w
    1dcc:	e751      	b.n	1c72 <IRQ131_Handler+0x3a>
        if ((Set == bM4_TMR61_STFLR_CMFF) && (VSSEL131 & BIT_MASK_05))
    1dce:	4b6e      	ldr	r3, [pc, #440]	; (1f88 <IRQ131_Handler+0x350>)
    1dd0:	681b      	ldr	r3, [r3, #0]
    1dd2:	2b01      	cmp	r3, #1
    1dd4:	f47f af52 	bne.w	1c7c <IRQ131_Handler+0x44>
    1dd8:	f014 0f20 	tst.w	r4, #32
    1ddc:	f43f af4e 	beq.w	1c7c <IRQ131_Handler+0x44>
            Timer61GCMF_IrqHandler();
    1de0:	f3af 8000 	nop.w
    1de4:	e74a      	b.n	1c7c <IRQ131_Handler+0x44>
        if ((Set == bM4_TMR61_STFLR_OVFF) && (VSSEL131 & BIT_MASK_06))
    1de6:	4b69      	ldr	r3, [pc, #420]	; (1f8c <IRQ131_Handler+0x354>)
    1de8:	681b      	ldr	r3, [r3, #0]
    1dea:	2b01      	cmp	r3, #1
    1dec:	f47f af4b 	bne.w	1c86 <IRQ131_Handler+0x4e>
    1df0:	f014 0f40 	tst.w	r4, #64	; 0x40
    1df4:	f43f af47 	beq.w	1c86 <IRQ131_Handler+0x4e>
            Timer61GOV_IrqHandler();
    1df8:	f3af 8000 	nop.w
    1dfc:	e743      	b.n	1c86 <IRQ131_Handler+0x4e>
        if ((Set == bM4_TMR61_STFLR_UDFF) && (VSSEL131 & BIT_MASK_07))
    1dfe:	4b64      	ldr	r3, [pc, #400]	; (1f90 <IRQ131_Handler+0x358>)
    1e00:	681b      	ldr	r3, [r3, #0]
    1e02:	2b01      	cmp	r3, #1
    1e04:	f47f af44 	bne.w	1c90 <IRQ131_Handler+0x58>
    1e08:	f014 0f80 	tst.w	r4, #128	; 0x80
    1e0c:	f43f af40 	beq.w	1c90 <IRQ131_Handler+0x58>
            Timer61GUD_IrqHandler();
    1e10:	f3af 8000 	nop.w
    1e14:	e73c      	b.n	1c90 <IRQ131_Handler+0x58>
        if (((Set == bM4_TMR61_STFLR_DTEF)) && (VSSEL131 & BIT_MASK_08))
    1e16:	4b5f      	ldr	r3, [pc, #380]	; (1f94 <IRQ131_Handler+0x35c>)
    1e18:	681b      	ldr	r3, [r3, #0]
    1e1a:	2b01      	cmp	r3, #1
    1e1c:	f47f af3d 	bne.w	1c9a <IRQ131_Handler+0x62>
    1e20:	f414 7f80 	tst.w	r4, #256	; 0x100
    1e24:	f43f af39 	beq.w	1c9a <IRQ131_Handler+0x62>
            Timer61GDT_IrqHandler();
    1e28:	f3af 8000 	nop.w
    1e2c:	e735      	b.n	1c9a <IRQ131_Handler+0x62>
        Timer61SCMA_IrqHandler();
    1e2e:	f3af 8000 	nop.w
    1e32:	e73e      	b.n	1cb2 <IRQ131_Handler+0x7a>
        Timer61SCMB_IrqHandler();
    1e34:	f3af 8000 	nop.w
    1e38:	e747      	b.n	1cca <IRQ131_Handler+0x92>
        if ((Set == bM4_TMR62_STFLR_CMAF) && (VSSEL131 & BIT_MASK_16))
    1e3a:	4b57      	ldr	r3, [pc, #348]	; (1f98 <IRQ131_Handler+0x360>)
    1e3c:	681b      	ldr	r3, [r3, #0]
    1e3e:	2b01      	cmp	r3, #1
    1e40:	f47f af48 	bne.w	1cd4 <IRQ131_Handler+0x9c>
    1e44:	f414 3f80 	tst.w	r4, #65536	; 0x10000
    1e48:	f43f af44 	beq.w	1cd4 <IRQ131_Handler+0x9c>
            Timer62GCMA_IrqHandler();
    1e4c:	f3af 8000 	nop.w
    1e50:	e740      	b.n	1cd4 <IRQ131_Handler+0x9c>
        if ((Set == bM4_TMR62_STFLR_CMBF) && (VSSEL131 & BIT_MASK_17))
    1e52:	4b52      	ldr	r3, [pc, #328]	; (1f9c <IRQ131_Handler+0x364>)
    1e54:	681b      	ldr	r3, [r3, #0]
    1e56:	2b01      	cmp	r3, #1
    1e58:	f47f af41 	bne.w	1cde <IRQ131_Handler+0xa6>
    1e5c:	f414 3f00 	tst.w	r4, #131072	; 0x20000
    1e60:	f43f af3d 	beq.w	1cde <IRQ131_Handler+0xa6>
            Timer62GCMB_IrqHandler();
    1e64:	f3af 8000 	nop.w
    1e68:	e739      	b.n	1cde <IRQ131_Handler+0xa6>
        if ((Set == bM4_TMR62_STFLR_CMCF) && (VSSEL131 & BIT_MASK_18))
    1e6a:	4b4d      	ldr	r3, [pc, #308]	; (1fa0 <IRQ131_Handler+0x368>)
    1e6c:	681b      	ldr	r3, [r3, #0]
    1e6e:	2b01      	cmp	r3, #1
    1e70:	f47f af3a 	bne.w	1ce8 <IRQ131_Handler+0xb0>
    1e74:	f414 2f80 	tst.w	r4, #262144	; 0x40000
    1e78:	f43f af36 	beq.w	1ce8 <IRQ131_Handler+0xb0>
            Timer62GCMC_IrqHandler();
    1e7c:	f3af 8000 	nop.w
    1e80:	e732      	b.n	1ce8 <IRQ131_Handler+0xb0>
        if ((Set == bM4_TMR62_STFLR_CMDF) && (VSSEL131 & BIT_MASK_19))
    1e82:	4b48      	ldr	r3, [pc, #288]	; (1fa4 <IRQ131_Handler+0x36c>)
    1e84:	681b      	ldr	r3, [r3, #0]
    1e86:	2b01      	cmp	r3, #1
    1e88:	f47f af33 	bne.w	1cf2 <IRQ131_Handler+0xba>
    1e8c:	f414 2f00 	tst.w	r4, #524288	; 0x80000
    1e90:	f43f af2f 	beq.w	1cf2 <IRQ131_Handler+0xba>
            Timer62GCMD_IrqHandler();
    1e94:	f3af 8000 	nop.w
    1e98:	e72b      	b.n	1cf2 <IRQ131_Handler+0xba>
        if ((Set == bM4_TMR62_STFLR_CMEF) && (VSSEL131 & BIT_MASK_20))
    1e9a:	4b43      	ldr	r3, [pc, #268]	; (1fa8 <IRQ131_Handler+0x370>)
    1e9c:	681b      	ldr	r3, [r3, #0]
    1e9e:	2b01      	cmp	r3, #1
    1ea0:	f47f af2c 	bne.w	1cfc <IRQ131_Handler+0xc4>
    1ea4:	f414 1f80 	tst.w	r4, #1048576	; 0x100000
    1ea8:	f43f af28 	beq.w	1cfc <IRQ131_Handler+0xc4>
            Timer62GCME_IrqHandler();
    1eac:	f3af 8000 	nop.w
    1eb0:	e724      	b.n	1cfc <IRQ131_Handler+0xc4>
        if ((Set == bM4_TMR62_STFLR_CMFF) && (VSSEL131 & BIT_MASK_21))
    1eb2:	4b3e      	ldr	r3, [pc, #248]	; (1fac <IRQ131_Handler+0x374>)
    1eb4:	681b      	ldr	r3, [r3, #0]
    1eb6:	2b01      	cmp	r3, #1
    1eb8:	f47f af25 	bne.w	1d06 <IRQ131_Handler+0xce>
    1ebc:	f414 1f00 	tst.w	r4, #2097152	; 0x200000
    1ec0:	f43f af21 	beq.w	1d06 <IRQ131_Handler+0xce>
            Timer62GCMF_IrqHandler();
    1ec4:	f3af 8000 	nop.w
    1ec8:	e71d      	b.n	1d06 <IRQ131_Handler+0xce>
        if ((Set == bM4_TMR62_STFLR_OVFF) && (VSSEL131 & BIT_MASK_22))
    1eca:	4b39      	ldr	r3, [pc, #228]	; (1fb0 <IRQ131_Handler+0x378>)
    1ecc:	681b      	ldr	r3, [r3, #0]
    1ece:	2b01      	cmp	r3, #1
    1ed0:	f47f af1e 	bne.w	1d10 <IRQ131_Handler+0xd8>
    1ed4:	f414 0f80 	tst.w	r4, #4194304	; 0x400000
    1ed8:	f43f af1a 	beq.w	1d10 <IRQ131_Handler+0xd8>
            Timer62GOV_IrqHandler();
    1edc:	f3af 8000 	nop.w
    1ee0:	e716      	b.n	1d10 <IRQ131_Handler+0xd8>
        if ((Set == bM4_TMR62_STFLR_UDFF) && (VSSEL131 & BIT_MASK_23))
    1ee2:	4b34      	ldr	r3, [pc, #208]	; (1fb4 <IRQ131_Handler+0x37c>)
    1ee4:	681b      	ldr	r3, [r3, #0]
    1ee6:	2b01      	cmp	r3, #1
    1ee8:	f47f af17 	bne.w	1d1a <IRQ131_Handler+0xe2>
    1eec:	f414 0f00 	tst.w	r4, #8388608	; 0x800000
    1ef0:	f43f af13 	beq.w	1d1a <IRQ131_Handler+0xe2>
            Timer62GUD_IrqHandler();
    1ef4:	f3af 8000 	nop.w
    1ef8:	e70f      	b.n	1d1a <IRQ131_Handler+0xe2>
        if (((Set == bM4_TMR62_STFLR_DTEF)) && (VSSEL131 & BIT_MASK_24))
    1efa:	4b2f      	ldr	r3, [pc, #188]	; (1fb8 <IRQ131_Handler+0x380>)
    1efc:	681b      	ldr	r3, [r3, #0]
    1efe:	2b01      	cmp	r3, #1
    1f00:	f47f af10 	bne.w	1d24 <IRQ131_Handler+0xec>
    1f04:	f014 7f80 	tst.w	r4, #16777216	; 0x1000000
    1f08:	f43f af0c 	beq.w	1d24 <IRQ131_Handler+0xec>
            Timer62GDT_IrqHandler();
    1f0c:	f3af 8000 	nop.w
    1f10:	e708      	b.n	1d24 <IRQ131_Handler+0xec>
        Timer62SCMA_IrqHandler();
    1f12:	f3af 8000 	nop.w
    1f16:	e711      	b.n	1d3c <IRQ131_Handler+0x104>
        Timer62SCMB_IrqHandler();
    1f18:	f3af 8000 	nop.w
}
    1f1c:	e71a      	b.n	1d54 <IRQ131_Handler+0x11c>
    1f1e:	bf00      	nop
    1f20:	40051000 	andmi	r1, r5, r0
    1f24:	42300a80 	eorsmi	r0, r0, #128, 20	; 0x80000
    1f28:	42300a84 	eorsmi	r0, r0, #132, 20	; 0x84000
    1f2c:	42300a88 	eorsmi	r0, r0, #136, 20	; 0x88000
    1f30:	42300a8c 	eorsmi	r0, r0, #140, 20	; 0x8c000
    1f34:	42300a90 	eorsmi	r0, r0, #144, 20	; 0x90000
    1f38:	42300a94 	eorsmi	r0, r0, #148, 20	; 0x94000
    1f3c:	42300a98 	eorsmi	r0, r0, #152, 20	; 0x98000
    1f40:	42300a9c 	eorsmi	r0, r0, #156, 20	; 0x9c000
    1f44:	42300aa0 	eorsmi	r0, r0, #160, 20	; 0xa0000
    1f48:	40018000 	andmi	r8, r1, r0
    1f4c:	42308a80 	eorsmi	r8, r0, #128, 20	; 0x80000
    1f50:	42308a84 	eorsmi	r8, r0, #132, 20	; 0x84000
    1f54:	42308a88 	eorsmi	r8, r0, #136, 20	; 0x88000
    1f58:	42308a8c 	eorsmi	r8, r0, #140, 20	; 0x8c000
    1f5c:	42308a90 	eorsmi	r8, r0, #144, 20	; 0x90000
    1f60:	42308a94 	eorsmi	r8, r0, #148, 20	; 0x94000
    1f64:	42308a98 	eorsmi	r8, r0, #152, 20	; 0x98000
    1f68:	42308a9c 	eorsmi	r8, r0, #156, 20	; 0x9c000
    1f6c:	42308aa0 	eorsmi	r8, r0, #160, 20	; 0xa0000
    1f70:	40018400 	andmi	r8, r1, r0, lsl #8
    1f74:	42300e00 	eorsmi	r0, r0, #0, 28
    1f78:	42300e04 	eorsmi	r0, r0, #4, 28	; 0x40
    1f7c:	42300e08 	eorsmi	r0, r0, #8, 28	; 0x80
    1f80:	42300e0c 	eorsmi	r0, r0, #12, 28	; 0xc0
    1f84:	42300e10 	eorsmi	r0, r0, #16, 28	; 0x100
    1f88:	42300e14 	eorsmi	r0, r0, #20, 28	; 0x140
    1f8c:	42300e18 	eorsmi	r0, r0, #24, 28	; 0x180
    1f90:	42300e1c 	eorsmi	r0, r0, #28, 28	; 0x1c0
    1f94:	42300e20 	eorsmi	r0, r0, #32, 28	; 0x200
    1f98:	42308e00 	eorsmi	r8, r0, #0, 28
    1f9c:	42308e04 	eorsmi	r8, r0, #4, 28	; 0x40
    1fa0:	42308e08 	eorsmi	r8, r0, #8, 28	; 0x80
    1fa4:	42308e0c 	eorsmi	r8, r0, #12, 28	; 0xc0
    1fa8:	42308e10 	eorsmi	r8, r0, #16, 28	; 0x100
    1fac:	42308e14 	eorsmi	r8, r0, #20, 28	; 0x140
    1fb0:	42308e18 	eorsmi	r8, r0, #24, 28	; 0x180
    1fb4:	42308e1c 	eorsmi	r8, r0, #28, 28	; 0x1c0
    1fb8:	42308e20 	eorsmi	r8, r0, #32, 28	; 0x200

00001fbc <IRQ132_Handler>:
 *******************************************************************************
 ** \brief Int No.132 share IRQ handler
 **
 ******************************************************************************/
void IRQ132_Handler(void)
{
    1fbc:	b510      	push	{r4, lr}
    uint32_t VSSEL132 = M4_INTC->VSSEL132;
    1fbe:	4b4f      	ldr	r3, [pc, #316]	; (20fc <IRQ132_Handler+0x140>)
    1fc0:	f8d3 426c 	ldr.w	r4, [r3, #620]	; 0x26c
    uint32_t u32Tmp1 = 0ul;
    uint32_t u32Tmp2 = 0ul;
    /* Timer6 Ch.3 A compare match */
    if (Set == bM4_TMR63_ICONR_INTENA)
    1fc4:	4b4e      	ldr	r3, [pc, #312]	; (2100 <IRQ132_Handler+0x144>)
    1fc6:	681b      	ldr	r3, [r3, #0]
    1fc8:	2b01      	cmp	r3, #1
    1fca:	d036      	beq.n	203a <IRQ132_Handler+0x7e>
        {
            Timer63GCMA_IrqHandler();
        }
    }
    /* Timer6 Ch.3 B compare match */
    if (Set == bM4_TMR63_ICONR_INTENB)
    1fcc:	4b4d      	ldr	r3, [pc, #308]	; (2104 <IRQ132_Handler+0x148>)
    1fce:	681b      	ldr	r3, [r3, #0]
    1fd0:	2b01      	cmp	r3, #1
    1fd2:	d03c      	beq.n	204e <IRQ132_Handler+0x92>
        {
            Timer63GCMB_IrqHandler();
        }
    }
    /* Timer6 Ch.3 C compare match */
    if (Set == bM4_TMR63_ICONR_INTENC)
    1fd4:	4b4c      	ldr	r3, [pc, #304]	; (2108 <IRQ132_Handler+0x14c>)
    1fd6:	681b      	ldr	r3, [r3, #0]
    1fd8:	2b01      	cmp	r3, #1
    1fda:	d042      	beq.n	2062 <IRQ132_Handler+0xa6>
        {
            Timer63GCMC_IrqHandler();
        }
    }
    /* Timer6 Ch.3 D compare match */
    if (Set == bM4_TMR63_ICONR_INTEND)
    1fdc:	4b4b      	ldr	r3, [pc, #300]	; (210c <IRQ132_Handler+0x150>)
    1fde:	681b      	ldr	r3, [r3, #0]
    1fe0:	2b01      	cmp	r3, #1
    1fe2:	d048      	beq.n	2076 <IRQ132_Handler+0xba>
        {
            Timer63GCMD_IrqHandler();
        }
    }
    /* Timer6 Ch.3 E compare match */
    if (Set == bM4_TMR63_ICONR_INTENE)
    1fe4:	4b4a      	ldr	r3, [pc, #296]	; (2110 <IRQ132_Handler+0x154>)
    1fe6:	681b      	ldr	r3, [r3, #0]
    1fe8:	2b01      	cmp	r3, #1
    1fea:	d04e      	beq.n	208a <IRQ132_Handler+0xce>
        {
            Timer63GCME_IrqHandler();
        }
    }
    /* Timer6 Ch.3 F compare match */
    if (Set == bM4_TMR63_ICONR_INTENF)
    1fec:	4b49      	ldr	r3, [pc, #292]	; (2114 <IRQ132_Handler+0x158>)
    1fee:	681b      	ldr	r3, [r3, #0]
    1ff0:	2b01      	cmp	r3, #1
    1ff2:	d054      	beq.n	209e <IRQ132_Handler+0xe2>
        {
            Timer63GCMF_IrqHandler();
        }
    }
    /* Timer6 Ch.3 overflow */
    if (Set == bM4_TMR63_ICONR_INTENOVF)
    1ff4:	4b48      	ldr	r3, [pc, #288]	; (2118 <IRQ132_Handler+0x15c>)
    1ff6:	681b      	ldr	r3, [r3, #0]
    1ff8:	2b01      	cmp	r3, #1
    1ffa:	d05a      	beq.n	20b2 <IRQ132_Handler+0xf6>
        {
            Timer63GOV_IrqHandler();
        }
    }
    /* Timer6 Ch.3 underflow */
    if (Set == bM4_TMR63_ICONR_INTENUDF)
    1ffc:	4b47      	ldr	r3, [pc, #284]	; (211c <IRQ132_Handler+0x160>)
    1ffe:	681b      	ldr	r3, [r3, #0]
    2000:	2b01      	cmp	r3, #1
    2002:	d060      	beq.n	20c6 <IRQ132_Handler+0x10a>
        {
            Timer63GUD_IrqHandler();
        }
    }
    /* Timer6 Ch.3 dead time */
    if (Set == bM4_TMR63_ICONR_INTENDTE)
    2004:	4b46      	ldr	r3, [pc, #280]	; (2120 <IRQ132_Handler+0x164>)
    2006:	681b      	ldr	r3, [r3, #0]
    2008:	2b01      	cmp	r3, #1
    200a:	d066      	beq.n	20da <IRQ132_Handler+0x11e>
        {
            Timer63GDT_IrqHandler();
        }
    }
    /* Timer6 Ch.3 A up-down compare match */
    u32Tmp1 = (M4_TMR63->ICONR & (BIT_MASK_16 | BIT_MASK_17)) >> 7u;
    200c:	4a45      	ldr	r2, [pc, #276]	; (2124 <IRQ132_Handler+0x168>)
    200e:	6d51      	ldr	r1, [r2, #84]	; 0x54
    u32Tmp2 = M4_TMR63->STFLR & (BIT_MASK_09 | BIT_MASK_10);
    2010:	6f13      	ldr	r3, [r2, #112]	; 0x70
    if ((u32Tmp1 & u32Tmp2) && (VSSEL132 & BIT_MASK_11))
    2012:	ea03 13d1 	and.w	r3, r3, r1, lsr #7
    2016:	f413 6fc0 	tst.w	r3, #1536	; 0x600
    201a:	d002      	beq.n	2022 <IRQ132_Handler+0x66>
    201c:	f414 6f00 	tst.w	r4, #2048	; 0x800
    2020:	d165      	bne.n	20ee <IRQ132_Handler+0x132>
    {
        Timer63SCMA_IrqHandler();
    }
    /* Timer6 Ch.3 B up-down compare match */
    u32Tmp1 = (M4_TMR63->ICONR & (BIT_MASK_18 | BIT_MASK_19)) >> 7u;
    2022:	4a40      	ldr	r2, [pc, #256]	; (2124 <IRQ132_Handler+0x168>)
    2024:	6d51      	ldr	r1, [r2, #84]	; 0x54
    u32Tmp2 = M4_TMR63->STFLR & (BIT_MASK_11 | BIT_MASK_12);
    2026:	6f13      	ldr	r3, [r2, #112]	; 0x70
    if ((u32Tmp1 & u32Tmp2) && (VSSEL132 & BIT_MASK_12))
    2028:	ea03 13d1 	and.w	r3, r3, r1, lsr #7
    202c:	f413 5fc0 	tst.w	r3, #6144	; 0x1800
    2030:	d002      	beq.n	2038 <IRQ132_Handler+0x7c>
    2032:	f414 5f80 	tst.w	r4, #4096	; 0x1000
    2036:	d15d      	bne.n	20f4 <IRQ132_Handler+0x138>
    {
        Timer63SCMB_IrqHandler();
    }
}
    2038:	bd10      	pop	{r4, pc}
        if ((Set == bM4_TMR63_STFLR_CMAF) && (VSSEL132 & BIT_MASK_00))
    203a:	4b3b      	ldr	r3, [pc, #236]	; (2128 <IRQ132_Handler+0x16c>)
    203c:	681b      	ldr	r3, [r3, #0]
    203e:	2b01      	cmp	r3, #1
    2040:	d1c4      	bne.n	1fcc <IRQ132_Handler+0x10>
    2042:	f014 0f01 	tst.w	r4, #1
    2046:	d0c1      	beq.n	1fcc <IRQ132_Handler+0x10>
            Timer63GCMA_IrqHandler();
    2048:	f3af 8000 	nop.w
    204c:	e7be      	b.n	1fcc <IRQ132_Handler+0x10>
        if ((Set == bM4_TMR63_STFLR_CMBF) && (VSSEL132 & BIT_MASK_01))
    204e:	4b37      	ldr	r3, [pc, #220]	; (212c <IRQ132_Handler+0x170>)
    2050:	681b      	ldr	r3, [r3, #0]
    2052:	2b01      	cmp	r3, #1
    2054:	d1be      	bne.n	1fd4 <IRQ132_Handler+0x18>
    2056:	f014 0f02 	tst.w	r4, #2
    205a:	d0bb      	beq.n	1fd4 <IRQ132_Handler+0x18>
            Timer63GCMB_IrqHandler();
    205c:	f3af 8000 	nop.w
    2060:	e7b8      	b.n	1fd4 <IRQ132_Handler+0x18>
        if ((Set == bM4_TMR63_STFLR_CMCF) && (VSSEL132 & BIT_MASK_02))
    2062:	4b33      	ldr	r3, [pc, #204]	; (2130 <IRQ132_Handler+0x174>)
    2064:	681b      	ldr	r3, [r3, #0]
    2066:	2b01      	cmp	r3, #1
    2068:	d1b8      	bne.n	1fdc <IRQ132_Handler+0x20>
    206a:	f014 0f04 	tst.w	r4, #4
    206e:	d0b5      	beq.n	1fdc <IRQ132_Handler+0x20>
            Timer63GCMC_IrqHandler();
    2070:	f3af 8000 	nop.w
    2074:	e7b2      	b.n	1fdc <IRQ132_Handler+0x20>
        if ((Set == bM4_TMR63_STFLR_CMDF) && (VSSEL132 & BIT_MASK_03))
    2076:	4b2f      	ldr	r3, [pc, #188]	; (2134 <IRQ132_Handler+0x178>)
    2078:	681b      	ldr	r3, [r3, #0]
    207a:	2b01      	cmp	r3, #1
    207c:	d1b2      	bne.n	1fe4 <IRQ132_Handler+0x28>
    207e:	f014 0f08 	tst.w	r4, #8
    2082:	d0af      	beq.n	1fe4 <IRQ132_Handler+0x28>
            Timer63GCMD_IrqHandler();
    2084:	f3af 8000 	nop.w
    2088:	e7ac      	b.n	1fe4 <IRQ132_Handler+0x28>
        if ((Set == bM4_TMR63_STFLR_CMEF) && (VSSEL132 & BIT_MASK_04))
    208a:	4b2b      	ldr	r3, [pc, #172]	; (2138 <IRQ132_Handler+0x17c>)
    208c:	681b      	ldr	r3, [r3, #0]
    208e:	2b01      	cmp	r3, #1
    2090:	d1ac      	bne.n	1fec <IRQ132_Handler+0x30>
    2092:	f014 0f10 	tst.w	r4, #16
    2096:	d0a9      	beq.n	1fec <IRQ132_Handler+0x30>
            Timer63GCME_IrqHandler();
    2098:	f3af 8000 	nop.w
    209c:	e7a6      	b.n	1fec <IRQ132_Handler+0x30>
        if ((Set == bM4_TMR63_STFLR_CMFF) && (VSSEL132 & BIT_MASK_05))
    209e:	4b27      	ldr	r3, [pc, #156]	; (213c <IRQ132_Handler+0x180>)
    20a0:	681b      	ldr	r3, [r3, #0]
    20a2:	2b01      	cmp	r3, #1
    20a4:	d1a6      	bne.n	1ff4 <IRQ132_Handler+0x38>
    20a6:	f014 0f20 	tst.w	r4, #32
    20aa:	d0a3      	beq.n	1ff4 <IRQ132_Handler+0x38>
            Timer63GCMF_IrqHandler();
    20ac:	f3af 8000 	nop.w
    20b0:	e7a0      	b.n	1ff4 <IRQ132_Handler+0x38>
        if ((Set == bM4_TMR63_STFLR_OVFF) && (VSSEL132 & BIT_MASK_06))
    20b2:	4b23      	ldr	r3, [pc, #140]	; (2140 <IRQ132_Handler+0x184>)
    20b4:	681b      	ldr	r3, [r3, #0]
    20b6:	2b01      	cmp	r3, #1
    20b8:	d1a0      	bne.n	1ffc <IRQ132_Handler+0x40>
    20ba:	f014 0f40 	tst.w	r4, #64	; 0x40
    20be:	d09d      	beq.n	1ffc <IRQ132_Handler+0x40>
            Timer63GOV_IrqHandler();
    20c0:	f3af 8000 	nop.w
    20c4:	e79a      	b.n	1ffc <IRQ132_Handler+0x40>
        if ((Set == bM4_TMR63_STFLR_UDFF) && (VSSEL132 & BIT_MASK_07))
    20c6:	4b1f      	ldr	r3, [pc, #124]	; (2144 <IRQ132_Handler+0x188>)
    20c8:	681b      	ldr	r3, [r3, #0]
    20ca:	2b01      	cmp	r3, #1
    20cc:	d19a      	bne.n	2004 <IRQ132_Handler+0x48>
    20ce:	f014 0f80 	tst.w	r4, #128	; 0x80
    20d2:	d097      	beq.n	2004 <IRQ132_Handler+0x48>
            Timer63GUD_IrqHandler();
    20d4:	f3af 8000 	nop.w
    20d8:	e794      	b.n	2004 <IRQ132_Handler+0x48>
        if (((Set == bM4_TMR63_STFLR_DTEF)) && (VSSEL132 & BIT_MASK_08))
    20da:	4b1b      	ldr	r3, [pc, #108]	; (2148 <IRQ132_Handler+0x18c>)
    20dc:	681b      	ldr	r3, [r3, #0]
    20de:	2b01      	cmp	r3, #1
    20e0:	d194      	bne.n	200c <IRQ132_Handler+0x50>
    20e2:	f414 7f80 	tst.w	r4, #256	; 0x100
    20e6:	d091      	beq.n	200c <IRQ132_Handler+0x50>
            Timer63GDT_IrqHandler();
    20e8:	f3af 8000 	nop.w
    20ec:	e78e      	b.n	200c <IRQ132_Handler+0x50>
        Timer63SCMA_IrqHandler();
    20ee:	f3af 8000 	nop.w
    20f2:	e796      	b.n	2022 <IRQ132_Handler+0x66>
        Timer63SCMB_IrqHandler();
    20f4:	f3af 8000 	nop.w
}
    20f8:	e79e      	b.n	2038 <IRQ132_Handler+0x7c>
    20fa:	bf00      	nop
    20fc:	40051000 	andmi	r1, r5, r0
    2100:	42310a80 	eorsmi	r0, r1, #128, 20	; 0x80000
    2104:	42310a84 	eorsmi	r0, r1, #132, 20	; 0x84000
    2108:	42310a88 	eorsmi	r0, r1, #136, 20	; 0x88000
    210c:	42310a8c 	eorsmi	r0, r1, #140, 20	; 0x8c000
    2110:	42310a90 	eorsmi	r0, r1, #144, 20	; 0x90000
    2114:	42310a94 	eorsmi	r0, r1, #148, 20	; 0x94000
    2118:	42310a98 	eorsmi	r0, r1, #152, 20	; 0x98000
    211c:	42310a9c 	eorsmi	r0, r1, #156, 20	; 0x9c000
    2120:	42310aa0 	eorsmi	r0, r1, #160, 20	; 0xa0000
    2124:	40018800 	andmi	r8, r1, r0, lsl #16
    2128:	42310e00 	eorsmi	r0, r1, #0, 28
    212c:	42310e04 	eorsmi	r0, r1, #4, 28	; 0x40
    2130:	42310e08 	eorsmi	r0, r1, #8, 28	; 0x80
    2134:	42310e0c 	eorsmi	r0, r1, #12, 28	; 0xc0
    2138:	42310e10 	eorsmi	r0, r1, #16, 28	; 0x100
    213c:	42310e14 	eorsmi	r0, r1, #20, 28	; 0x140
    2140:	42310e18 	eorsmi	r0, r1, #24, 28	; 0x180
    2144:	42310e1c 	eorsmi	r0, r1, #28, 28	; 0x1c0
    2148:	42310e20 	eorsmi	r0, r1, #32, 28	; 0x200

0000214c <IRQ136_Handler>:
 *******************************************************************************
 ** \brief Int No.136 share IRQ handler
 **
 ******************************************************************************/
void IRQ136_Handler(void)
{
    214c:	b570      	push	{r4, r5, r6, lr}
    uint32_t u32Tmp1 = 0ul;
    uint32_t u32Tmp2 = 0ul;
    uint32_t VSSEL136 = M4_INTC->VSSEL136;
    214e:	4bc1      	ldr	r3, [pc, #772]	; (2454 <IRQ136_Handler+0x308>)
    2150:	f8d3 427c 	ldr.w	r4, [r3, #636]	; 0x27c

    u32Tmp1 = M4_TMRA1->BCSTR;
    2154:	f5a3 3370 	sub.w	r3, r3, #245760	; 0x3c000
    2158:	f8d3 5080 	ldr.w	r5, [r3, #128]	; 0x80
    /* TiemrA Ch.1 overflow */
    if ((u32Tmp1 & BIT_MASK_12) && (u32Tmp1 & BIT_MASK_14) && (VSSEL136 & BIT_MASK_00))
    215c:	f405 43a0 	and.w	r3, r5, #20480	; 0x5000
    2160:	f5b3 4fa0 	cmp.w	r3, #20480	; 0x5000
    2164:	f000 80e2 	beq.w	232c <IRQ136_Handler+0x1e0>
    {
        TimerA1OV_IrqHandler();
    }
    /* TiemrA Ch.1 underflow */
    if ((u32Tmp1 & BIT_MASK_13) && (u32Tmp1 & BIT_MASK_15) && (VSSEL136 & BIT_MASK_01))
    2168:	f405 4520 	and.w	r5, r5, #40960	; 0xa000
    216c:	f5b5 4f20 	cmp.w	r5, #40960	; 0xa000
    2170:	f000 80e3 	beq.w	233a <IRQ136_Handler+0x1ee>
    {
        TimerA1UD_IrqHandler();
    }
    u32Tmp1 = M4_TMRA1->ICONR;
    2174:	4bb8      	ldr	r3, [pc, #736]	; (2458 <IRQ136_Handler+0x30c>)
    2176:	f8d3 2090 	ldr.w	r2, [r3, #144]	; 0x90
    u32Tmp2 = M4_TMRA1->STFLR;
    217a:	f8d3 309c 	ldr.w	r3, [r3, #156]	; 0x9c
    /* TiemrA Ch.1 compare match */
    if ((u32Tmp1 & u32Tmp2) && (VSSEL136 & BIT_MASK_02))
    217e:	421a      	tst	r2, r3
    2180:	d003      	beq.n	218a <IRQ136_Handler+0x3e>
    2182:	f014 0f04 	tst.w	r4, #4
    2186:	f040 80df 	bne.w	2348 <IRQ136_Handler+0x1fc>
    {
        TimerA1CMP_IrqHandler();
    }

    u32Tmp1 = M4_TMRA2->BCSTR;
    218a:	4bb4      	ldr	r3, [pc, #720]	; (245c <IRQ136_Handler+0x310>)
    218c:	f8d3 5080 	ldr.w	r5, [r3, #128]	; 0x80
    /* TiemrA Ch.2 overflow */
    if ((u32Tmp1 & BIT_MASK_12) && (u32Tmp1 & BIT_MASK_14) && (VSSEL136 & BIT_MASK_03))
    2190:	f405 43a0 	and.w	r3, r5, #20480	; 0x5000
    2194:	f5b3 4fa0 	cmp.w	r3, #20480	; 0x5000
    2198:	f000 80d9 	beq.w	234e <IRQ136_Handler+0x202>
    {
        TimerA2OV_IrqHandler();
    }
    /* TiemrA Ch.2 underflow */
    if ((u32Tmp1 & BIT_MASK_13) && (u32Tmp1 & BIT_MASK_15) && (VSSEL136 & BIT_MASK_04))
    219c:	f405 4520 	and.w	r5, r5, #40960	; 0xa000
    21a0:	f5b5 4f20 	cmp.w	r5, #40960	; 0xa000
    21a4:	f000 80da 	beq.w	235c <IRQ136_Handler+0x210>
    {
        TimerA2UD_IrqHandler();
    }
    u32Tmp1 = M4_TMRA2->ICONR;
    21a8:	4bac      	ldr	r3, [pc, #688]	; (245c <IRQ136_Handler+0x310>)
    21aa:	f8d3 2090 	ldr.w	r2, [r3, #144]	; 0x90
    u32Tmp2 = M4_TMRA2->STFLR;
    21ae:	f8d3 309c 	ldr.w	r3, [r3, #156]	; 0x9c
    /* TiemrA Ch.2 compare match */
    if ((u32Tmp1 & u32Tmp2) && (VSSEL136 & BIT_MASK_05))
    21b2:	421a      	tst	r2, r3
    21b4:	d003      	beq.n	21be <IRQ136_Handler+0x72>
    21b6:	f014 0f20 	tst.w	r4, #32
    21ba:	f040 80d6 	bne.w	236a <IRQ136_Handler+0x21e>
    {
        TimerA2CMP_IrqHandler();
    }

    u32Tmp1 = M4_TMRA3->BCSTR;
    21be:	4ba8      	ldr	r3, [pc, #672]	; (2460 <IRQ136_Handler+0x314>)
    21c0:	f8d3 5080 	ldr.w	r5, [r3, #128]	; 0x80
    /* TiemrA Ch.3 overflow */
    if ((u32Tmp1 & BIT_MASK_12) && (u32Tmp1 & BIT_MASK_14) && (VSSEL136 & BIT_MASK_06))
    21c4:	f405 43a0 	and.w	r3, r5, #20480	; 0x5000
    21c8:	f5b3 4fa0 	cmp.w	r3, #20480	; 0x5000
    21cc:	f000 80d0 	beq.w	2370 <IRQ136_Handler+0x224>
    {
        TimerA3OV_IrqHandler();
    }
    /* TiemrA Ch.3 underflow */
    if ((u32Tmp1 & BIT_MASK_13) && (u32Tmp1 & BIT_MASK_15) && (VSSEL136 & BIT_MASK_07))
    21d0:	f405 4520 	and.w	r5, r5, #40960	; 0xa000
    21d4:	f5b5 4f20 	cmp.w	r5, #40960	; 0xa000
    21d8:	f000 80d1 	beq.w	237e <IRQ136_Handler+0x232>
    {
        TimerA3UD_IrqHandler();
    }
    u32Tmp1 = M4_TMRA3->ICONR;
    21dc:	4ba0      	ldr	r3, [pc, #640]	; (2460 <IRQ136_Handler+0x314>)
    21de:	f8d3 2090 	ldr.w	r2, [r3, #144]	; 0x90
    u32Tmp2 = M4_TMRA3->STFLR;
    21e2:	f8d3 309c 	ldr.w	r3, [r3, #156]	; 0x9c
    /* TiemrA Ch.3 compare match */
    if ((u32Tmp1 & u32Tmp2) && (VSSEL136 & BIT_MASK_08))
    21e6:	421a      	tst	r2, r3
    21e8:	d003      	beq.n	21f2 <IRQ136_Handler+0xa6>
    21ea:	f414 7f80 	tst.w	r4, #256	; 0x100
    21ee:	f040 80cd 	bne.w	238c <IRQ136_Handler+0x240>
    {
        TimerA3CMP_IrqHandler();
    }

    u32Tmp1 = M4_TMRA4->BCSTR;
    21f2:	4b9c      	ldr	r3, [pc, #624]	; (2464 <IRQ136_Handler+0x318>)
    21f4:	f8d3 5080 	ldr.w	r5, [r3, #128]	; 0x80
    /* TiemrA Ch.4 overflow */
    if ((u32Tmp1 & BIT_MASK_12) && (u32Tmp1 & BIT_MASK_14) && (VSSEL136 & BIT_MASK_09))
    21f8:	f405 43a0 	and.w	r3, r5, #20480	; 0x5000
    21fc:	f5b3 4fa0 	cmp.w	r3, #20480	; 0x5000
    2200:	f000 80c7 	beq.w	2392 <IRQ136_Handler+0x246>
    {
        TimerA4OV_IrqHandler();
    }
    /* TiemrA Ch.4 underflow */
    if ((u32Tmp1 & BIT_MASK_13) && (u32Tmp1 & BIT_MASK_15) && (VSSEL136 & BIT_MASK_10))
    2204:	f405 4520 	and.w	r5, r5, #40960	; 0xa000
    2208:	f5b5 4f20 	cmp.w	r5, #40960	; 0xa000
    220c:	f000 80c8 	beq.w	23a0 <IRQ136_Handler+0x254>
    {
        TimerA4UD_IrqHandler();
    }
    u32Tmp1 = M4_TMRA4->ICONR;
    2210:	4b94      	ldr	r3, [pc, #592]	; (2464 <IRQ136_Handler+0x318>)
    2212:	f8d3 2090 	ldr.w	r2, [r3, #144]	; 0x90
    u32Tmp2 = M4_TMRA4->STFLR;
    2216:	f8d3 309c 	ldr.w	r3, [r3, #156]	; 0x9c
    /* TiemrA Ch.4 compare match */
    if ((u32Tmp1 & u32Tmp2) && (VSSEL136 & BIT_MASK_11))
    221a:	421a      	tst	r2, r3
    221c:	d003      	beq.n	2226 <IRQ136_Handler+0xda>
    221e:	f414 6f00 	tst.w	r4, #2048	; 0x800
    2222:	f040 80c4 	bne.w	23ae <IRQ136_Handler+0x262>
    {
        TimerA4CMP_IrqHandler();
    }

    u32Tmp1 = M4_TMRA5->BCSTR;
    2226:	4b90      	ldr	r3, [pc, #576]	; (2468 <IRQ136_Handler+0x31c>)
    2228:	f8d3 5080 	ldr.w	r5, [r3, #128]	; 0x80
    /* TiemrA Ch.5 overflow */
    if ((u32Tmp1 & BIT_MASK_12) && (u32Tmp1 & BIT_MASK_14) && (VSSEL136 & BIT_MASK_12))
    222c:	f405 43a0 	and.w	r3, r5, #20480	; 0x5000
    2230:	f5b3 4fa0 	cmp.w	r3, #20480	; 0x5000
    2234:	f000 80be 	beq.w	23b4 <IRQ136_Handler+0x268>
    {
        TimerA5OV_IrqHandler();
    }
    /* TiemrA Ch.5 underflow */
    if ((u32Tmp1 & BIT_MASK_13) && (u32Tmp1 & BIT_MASK_15) && (VSSEL136 & BIT_MASK_13))
    2238:	f405 4520 	and.w	r5, r5, #40960	; 0xa000
    223c:	f5b5 4f20 	cmp.w	r5, #40960	; 0xa000
    2240:	f000 80bf 	beq.w	23c2 <IRQ136_Handler+0x276>
    {
        TimerA5UD_IrqHandler();
    }
    u32Tmp1 = M4_TMRA5->ICONR;
    2244:	4b88      	ldr	r3, [pc, #544]	; (2468 <IRQ136_Handler+0x31c>)
    2246:	f8d3 2090 	ldr.w	r2, [r3, #144]	; 0x90
    u32Tmp2 = M4_TMRA5->STFLR;
    224a:	f8d3 309c 	ldr.w	r3, [r3, #156]	; 0x9c
    /* TiemrA Ch.5 compare match */
    if ((u32Tmp1 & u32Tmp2) && (VSSEL136 & BIT_MASK_14))
    224e:	421a      	tst	r2, r3
    2250:	d003      	beq.n	225a <IRQ136_Handler+0x10e>
    2252:	f414 4f80 	tst.w	r4, #16384	; 0x4000
    2256:	f040 80bb 	bne.w	23d0 <IRQ136_Handler+0x284>
    {
        TimerA5CMP_IrqHandler();
    }

    u32Tmp1 = M4_TMRA6->BCSTR;
    225a:	4b84      	ldr	r3, [pc, #528]	; (246c <IRQ136_Handler+0x320>)
    225c:	f8d3 5080 	ldr.w	r5, [r3, #128]	; 0x80
    /* TiemrA Ch.6 overflow */
    if ((u32Tmp1 & BIT_MASK_12) && (u32Tmp1 & BIT_MASK_14) && (VSSEL136 & BIT_MASK_16))
    2260:	f405 43a0 	and.w	r3, r5, #20480	; 0x5000
    2264:	f5b3 4fa0 	cmp.w	r3, #20480	; 0x5000
    2268:	f000 80b5 	beq.w	23d6 <IRQ136_Handler+0x28a>
    {
        TimerA6OV_IrqHandler();
    }
    /* TiemrA Ch.6 underflow */
    if ((u32Tmp1 & BIT_MASK_13) && (u32Tmp1 & BIT_MASK_15) && (VSSEL136 & BIT_MASK_17))
    226c:	f405 4520 	and.w	r5, r5, #40960	; 0xa000
    2270:	f5b5 4f20 	cmp.w	r5, #40960	; 0xa000
    2274:	f000 80b6 	beq.w	23e4 <IRQ136_Handler+0x298>
    {
        TimerA6UD_IrqHandler();
    }
    u32Tmp1 = M4_TMRA6->ICONR;
    2278:	4b7c      	ldr	r3, [pc, #496]	; (246c <IRQ136_Handler+0x320>)
    227a:	f8d3 2090 	ldr.w	r2, [r3, #144]	; 0x90
    u32Tmp2 = M4_TMRA6->STFLR;
    227e:	f8d3 309c 	ldr.w	r3, [r3, #156]	; 0x9c
    /* TiemrA Ch.6 compare match */
    if ((u32Tmp1 & u32Tmp2) && (VSSEL136 & BIT_MASK_18))
    2282:	421a      	tst	r2, r3
    2284:	d003      	beq.n	228e <IRQ136_Handler+0x142>
    2286:	f414 2f80 	tst.w	r4, #262144	; 0x40000
    228a:	f040 80b2 	bne.w	23f2 <IRQ136_Handler+0x2a6>
    {
        TimerA6CMP_IrqHandler();
    }
    /* USBFS global interrupt */
    if(Set == bM4_USBFS_GAHBCFG_GINTMSK)
    228e:	4b78      	ldr	r3, [pc, #480]	; (2470 <IRQ136_Handler+0x324>)
    2290:	681b      	ldr	r3, [r3, #0]
    2292:	2b01      	cmp	r3, #1
    2294:	f000 80b0 	beq.w	23f8 <IRQ136_Handler+0x2ac>
        {
            UsbGlobal_IrqHandler();
        }
    }

    u32Tmp1 = M4_USART1->SR;
    2298:	4b76      	ldr	r3, [pc, #472]	; (2474 <IRQ136_Handler+0x328>)
    229a:	681e      	ldr	r6, [r3, #0]
    u32Tmp2 = M4_USART1->CR1;
    229c:	68dd      	ldr	r5, [r3, #12]
    /* USART Ch.1 Receive error */
    if ((u32Tmp2 & BIT_MASK_05) && (u32Tmp1 & (BIT_MASK_00 | BIT_MASK_01 | BIT_MASK_03)) && (VSSEL136 & BIT_MASK_22))
    229e:	f015 0f20 	tst.w	r5, #32
    22a2:	d006      	beq.n	22b2 <IRQ136_Handler+0x166>
    22a4:	f016 0f0b 	tst.w	r6, #11
    22a8:	d003      	beq.n	22b2 <IRQ136_Handler+0x166>
    22aa:	f414 0f80 	tst.w	r4, #4194304	; 0x400000
    22ae:	f040 80b3 	bne.w	2418 <IRQ136_Handler+0x2cc>
    {
        Usart1RxErr_IrqHandler();
    }
    /* USART Ch.1 Receive completed */
    if ((u32Tmp2 & u32Tmp1) && (VSSEL136 & BIT_MASK_23))
    22b2:	422e      	tst	r6, r5
    22b4:	d00b      	beq.n	22ce <IRQ136_Handler+0x182>
    22b6:	f414 0f00 	tst.w	r4, #8388608	; 0x800000
    22ba:	f040 80b0 	bne.w	241e <IRQ136_Handler+0x2d2>
    {
        Usart1RxEnd_IrqHandler();
    }
    /* USART Ch.1 Transmit data empty */
    if ((u32Tmp2 & u32Tmp1) && (VSSEL136 & BIT_MASK_24))
    22be:	f014 7f80 	tst.w	r4, #16777216	; 0x1000000
    22c2:	f040 80af 	bne.w	2424 <IRQ136_Handler+0x2d8>
    {
        Usart1TxEmpty_IrqHandler();
    }
    /* USART Ch.1 Transmit completed */
    if ((u32Tmp2 & u32Tmp1) && (VSSEL136 & BIT_MASK_25))
    22c6:	f014 7f00 	tst.w	r4, #33554432	; 0x2000000
    22ca:	f040 80ae 	bne.w	242a <IRQ136_Handler+0x2de>
    {
        Usart1TxEnd_IrqHandler();
    }
    /* USART Ch.1 Receive timeout */
    if ((u32Tmp2 & BIT_MASK_01) && (u32Tmp1 & BIT_MASK_08) && (VSSEL136 & BIT_MASK_26))
    22ce:	f015 0f02 	tst.w	r5, #2
    22d2:	d006      	beq.n	22e2 <IRQ136_Handler+0x196>
    22d4:	f416 7f80 	tst.w	r6, #256	; 0x100
    22d8:	d003      	beq.n	22e2 <IRQ136_Handler+0x196>
    22da:	f014 6f80 	tst.w	r4, #67108864	; 0x4000000
    22de:	f040 80a7 	bne.w	2430 <IRQ136_Handler+0x2e4>
    {
        Usart1RxTO_IrqHandler();
    }

    u32Tmp1 = M4_USART2->SR;
    22e2:	4b65      	ldr	r3, [pc, #404]	; (2478 <IRQ136_Handler+0x32c>)
    22e4:	681e      	ldr	r6, [r3, #0]
    u32Tmp2 = M4_USART2->CR1;
    22e6:	68dd      	ldr	r5, [r3, #12]
    /* USART Ch.2 Receive error */
    if ((u32Tmp2 & BIT_MASK_05) && (u32Tmp1 & (BIT_MASK_00 | BIT_MASK_01 | BIT_MASK_03)) && (VSSEL136 & BIT_MASK_27))
    22e8:	f015 0f20 	tst.w	r5, #32
    22ec:	d006      	beq.n	22fc <IRQ136_Handler+0x1b0>
    22ee:	f016 0f0b 	tst.w	r6, #11
    22f2:	d003      	beq.n	22fc <IRQ136_Handler+0x1b0>
    22f4:	f014 6f00 	tst.w	r4, #134217728	; 0x8000000
    22f8:	f040 809d 	bne.w	2436 <IRQ136_Handler+0x2ea>
    {
        Usart2RxErr_IrqHandler();
    }
    /* USART Ch.2 Receive completed */
    if ((u32Tmp2 & u32Tmp1) && (VSSEL136 & BIT_MASK_28))
    22fc:	422e      	tst	r6, r5
    22fe:	d00b      	beq.n	2318 <IRQ136_Handler+0x1cc>
    2300:	f014 5f80 	tst.w	r4, #268435456	; 0x10000000
    2304:	f040 809a 	bne.w	243c <IRQ136_Handler+0x2f0>
    {
        Usart2RxEnd_IrqHandler();
    }
    /* USART Ch.2 Transmit data empty */
    if ((u32Tmp2 & u32Tmp1) && (VSSEL136 & BIT_MASK_29))
    2308:	f014 5f00 	tst.w	r4, #536870912	; 0x20000000
    230c:	f040 8099 	bne.w	2442 <IRQ136_Handler+0x2f6>
    {
        Usart2TxEmpty_IrqHandler();
    }
    /* USART Ch.2 Transmit completed */
    if ((u32Tmp2 & u32Tmp1) && (VSSEL136 & BIT_MASK_30))
    2310:	f014 4f80 	tst.w	r4, #1073741824	; 0x40000000
    2314:	f040 8098 	bne.w	2448 <IRQ136_Handler+0x2fc>
    {
        Usart2TxEnd_IrqHandler();
    }
    /* USART Ch.2 Receive timeout */
    if ((u32Tmp2 & BIT_MASK_01) && (u32Tmp1 & BIT_MASK_08) && (VSSEL136 & BIT_MASK_31))
    2318:	f015 0f02 	tst.w	r5, #2
    231c:	d005      	beq.n	232a <IRQ136_Handler+0x1de>
    231e:	f416 7f80 	tst.w	r6, #256	; 0x100
    2322:	d002      	beq.n	232a <IRQ136_Handler+0x1de>
    2324:	2c00      	cmp	r4, #0
    2326:	f2c0 8092 	blt.w	244e <IRQ136_Handler+0x302>
    {
        Usart2RxTO_IrqHandler();
    }
}
    232a:	bd70      	pop	{r4, r5, r6, pc}
    if ((u32Tmp1 & BIT_MASK_12) && (u32Tmp1 & BIT_MASK_14) && (VSSEL136 & BIT_MASK_00))
    232c:	f014 0f01 	tst.w	r4, #1
    2330:	f43f af1a 	beq.w	2168 <IRQ136_Handler+0x1c>
        TimerA1OV_IrqHandler();
    2334:	f3af 8000 	nop.w
    2338:	e716      	b.n	2168 <IRQ136_Handler+0x1c>
    if ((u32Tmp1 & BIT_MASK_13) && (u32Tmp1 & BIT_MASK_15) && (VSSEL136 & BIT_MASK_01))
    233a:	f014 0f02 	tst.w	r4, #2
    233e:	f43f af19 	beq.w	2174 <IRQ136_Handler+0x28>
        TimerA1UD_IrqHandler();
    2342:	f3af 8000 	nop.w
    2346:	e715      	b.n	2174 <IRQ136_Handler+0x28>
        TimerA1CMP_IrqHandler();
    2348:	f3af 8000 	nop.w
    234c:	e71d      	b.n	218a <IRQ136_Handler+0x3e>
    if ((u32Tmp1 & BIT_MASK_12) && (u32Tmp1 & BIT_MASK_14) && (VSSEL136 & BIT_MASK_03))
    234e:	f014 0f08 	tst.w	r4, #8
    2352:	f43f af23 	beq.w	219c <IRQ136_Handler+0x50>
        TimerA2OV_IrqHandler();
    2356:	f3af 8000 	nop.w
    235a:	e71f      	b.n	219c <IRQ136_Handler+0x50>
    if ((u32Tmp1 & BIT_MASK_13) && (u32Tmp1 & BIT_MASK_15) && (VSSEL136 & BIT_MASK_04))
    235c:	f014 0f10 	tst.w	r4, #16
    2360:	f43f af22 	beq.w	21a8 <IRQ136_Handler+0x5c>
        TimerA2UD_IrqHandler();
    2364:	f3af 8000 	nop.w
    2368:	e71e      	b.n	21a8 <IRQ136_Handler+0x5c>
        TimerA2CMP_IrqHandler();
    236a:	f3af 8000 	nop.w
    236e:	e726      	b.n	21be <IRQ136_Handler+0x72>
    if ((u32Tmp1 & BIT_MASK_12) && (u32Tmp1 & BIT_MASK_14) && (VSSEL136 & BIT_MASK_06))
    2370:	f014 0f40 	tst.w	r4, #64	; 0x40
    2374:	f43f af2c 	beq.w	21d0 <IRQ136_Handler+0x84>
        TimerA3OV_IrqHandler();
    2378:	f3af 8000 	nop.w
    237c:	e728      	b.n	21d0 <IRQ136_Handler+0x84>
    if ((u32Tmp1 & BIT_MASK_13) && (u32Tmp1 & BIT_MASK_15) && (VSSEL136 & BIT_MASK_07))
    237e:	f014 0f80 	tst.w	r4, #128	; 0x80
    2382:	f43f af2b 	beq.w	21dc <IRQ136_Handler+0x90>
        TimerA3UD_IrqHandler();
    2386:	f3af 8000 	nop.w
    238a:	e727      	b.n	21dc <IRQ136_Handler+0x90>
        TimerA3CMP_IrqHandler();
    238c:	f3af 8000 	nop.w
    2390:	e72f      	b.n	21f2 <IRQ136_Handler+0xa6>
    if ((u32Tmp1 & BIT_MASK_12) && (u32Tmp1 & BIT_MASK_14) && (VSSEL136 & BIT_MASK_09))
    2392:	f414 7f00 	tst.w	r4, #512	; 0x200
    2396:	f43f af35 	beq.w	2204 <IRQ136_Handler+0xb8>
        TimerA4OV_IrqHandler();
    239a:	f3af 8000 	nop.w
    239e:	e731      	b.n	2204 <IRQ136_Handler+0xb8>
    if ((u32Tmp1 & BIT_MASK_13) && (u32Tmp1 & BIT_MASK_15) && (VSSEL136 & BIT_MASK_10))
    23a0:	f414 6f80 	tst.w	r4, #1024	; 0x400
    23a4:	f43f af34 	beq.w	2210 <IRQ136_Handler+0xc4>
        TimerA4UD_IrqHandler();
    23a8:	f3af 8000 	nop.w
    23ac:	e730      	b.n	2210 <IRQ136_Handler+0xc4>
        TimerA4CMP_IrqHandler();
    23ae:	f3af 8000 	nop.w
    23b2:	e738      	b.n	2226 <IRQ136_Handler+0xda>
    if ((u32Tmp1 & BIT_MASK_12) && (u32Tmp1 & BIT_MASK_14) && (VSSEL136 & BIT_MASK_12))
    23b4:	f414 5f80 	tst.w	r4, #4096	; 0x1000
    23b8:	f43f af3e 	beq.w	2238 <IRQ136_Handler+0xec>
        TimerA5OV_IrqHandler();
    23bc:	f3af 8000 	nop.w
    23c0:	e73a      	b.n	2238 <IRQ136_Handler+0xec>
    if ((u32Tmp1 & BIT_MASK_13) && (u32Tmp1 & BIT_MASK_15) && (VSSEL136 & BIT_MASK_13))
    23c2:	f414 5f00 	tst.w	r4, #8192	; 0x2000
    23c6:	f43f af3d 	beq.w	2244 <IRQ136_Handler+0xf8>
        TimerA5UD_IrqHandler();
    23ca:	f3af 8000 	nop.w
    23ce:	e739      	b.n	2244 <IRQ136_Handler+0xf8>
        TimerA5CMP_IrqHandler();
    23d0:	f3af 8000 	nop.w
    23d4:	e741      	b.n	225a <IRQ136_Handler+0x10e>
    if ((u32Tmp1 & BIT_MASK_12) && (u32Tmp1 & BIT_MASK_14) && (VSSEL136 & BIT_MASK_16))
    23d6:	f414 3f80 	tst.w	r4, #65536	; 0x10000
    23da:	f43f af47 	beq.w	226c <IRQ136_Handler+0x120>
        TimerA6OV_IrqHandler();
    23de:	f3af 8000 	nop.w
    23e2:	e743      	b.n	226c <IRQ136_Handler+0x120>
    if ((u32Tmp1 & BIT_MASK_13) && (u32Tmp1 & BIT_MASK_15) && (VSSEL136 & BIT_MASK_17))
    23e4:	f414 3f00 	tst.w	r4, #131072	; 0x20000
    23e8:	f43f af46 	beq.w	2278 <IRQ136_Handler+0x12c>
        TimerA6UD_IrqHandler();
    23ec:	f3af 8000 	nop.w
    23f0:	e742      	b.n	2278 <IRQ136_Handler+0x12c>
        TimerA6CMP_IrqHandler();
    23f2:	f3af 8000 	nop.w
    23f6:	e74a      	b.n	228e <IRQ136_Handler+0x142>
        u32Tmp1 = M4_USBFS->GINTMSK & 0xF77CFCFBul;
    23f8:	4b20      	ldr	r3, [pc, #128]	; (247c <IRQ136_Handler+0x330>)
    23fa:	699a      	ldr	r2, [r3, #24]
        u32Tmp2 = M4_USBFS->GINTSTS & 0xF77CFCFBul;
    23fc:	695b      	ldr	r3, [r3, #20]
        if ((u32Tmp1 & u32Tmp2) && (VSSEL136 & BIT_MASK_19))
    23fe:	401a      	ands	r2, r3
    2400:	4b1f      	ldr	r3, [pc, #124]	; (2480 <IRQ136_Handler+0x334>)
    2402:	4013      	ands	r3, r2
    2404:	2b00      	cmp	r3, #0
    2406:	f43f af47 	beq.w	2298 <IRQ136_Handler+0x14c>
    240a:	f414 2f00 	tst.w	r4, #524288	; 0x80000
    240e:	f43f af43 	beq.w	2298 <IRQ136_Handler+0x14c>
            UsbGlobal_IrqHandler();
    2412:	f3af 8000 	nop.w
    2416:	e73f      	b.n	2298 <IRQ136_Handler+0x14c>
        Usart1RxErr_IrqHandler();
    2418:	f3af 8000 	nop.w
    241c:	e749      	b.n	22b2 <IRQ136_Handler+0x166>
        Usart1RxEnd_IrqHandler();
    241e:	f3af 8000 	nop.w
    2422:	e74c      	b.n	22be <IRQ136_Handler+0x172>
        Usart1TxEmpty_IrqHandler();
    2424:	f3af 8000 	nop.w
    2428:	e74d      	b.n	22c6 <IRQ136_Handler+0x17a>
        Usart1TxEnd_IrqHandler();
    242a:	f3af 8000 	nop.w
    242e:	e74e      	b.n	22ce <IRQ136_Handler+0x182>
        Usart1RxTO_IrqHandler();
    2430:	f3af 8000 	nop.w
    2434:	e755      	b.n	22e2 <IRQ136_Handler+0x196>
        Usart2RxErr_IrqHandler();
    2436:	f3af 8000 	nop.w
    243a:	e75f      	b.n	22fc <IRQ136_Handler+0x1b0>
        Usart2RxEnd_IrqHandler();
    243c:	f3af 8000 	nop.w
    2440:	e762      	b.n	2308 <IRQ136_Handler+0x1bc>
        Usart2TxEmpty_IrqHandler();
    2442:	f3af 8000 	nop.w
    2446:	e763      	b.n	2310 <IRQ136_Handler+0x1c4>
        Usart2TxEnd_IrqHandler();
    2448:	f3af 8000 	nop.w
    244c:	e764      	b.n	2318 <IRQ136_Handler+0x1cc>
        Usart2RxTO_IrqHandler();
    244e:	f3af 8000 	nop.w
}
    2452:	e76a      	b.n	232a <IRQ136_Handler+0x1de>
    2454:	40051000 	andmi	r1, r5, r0
    2458:	40015000 	andmi	r5, r1, r0
    245c:	40015400 	andmi	r5, r1, r0, lsl #8
    2460:	40015800 	andmi	r5, r1, r0, lsl #16
    2464:	40015c00 	andmi	r5, r1, r0, lsl #24
    2468:	40016000 	andmi	r6, r1, r0
    246c:	40016400 	andmi	r6, r1, r0, lsl #8
    2470:	43800100 	orrmi	r0, r0, #0, 2
    2474:	4001d000 	andmi	sp, r1, r0
    2478:	4001d400 	andmi	sp, r1, r0, lsl #8
    247c:	400c0000 	andmi	r0, ip, r0
    2480:	f77cfcfb 			; <UNDEFINED> instruction: 0xf77cfcfb

00002484 <IRQ137_Handler>:
 *******************************************************************************
 ** \brief Int No.137 share IRQ handler
 **
 ******************************************************************************/
void IRQ137_Handler(void)
{
    2484:	b570      	push	{r4, r5, r6, lr}
    uint32_t u32Tmp1 = 0ul;
    uint32_t u32Tmp2 = 0ul;
    uint32_t VSSEL137 = M4_INTC->VSSEL137;
    2486:	4ba0      	ldr	r3, [pc, #640]	; (2708 <IRQ137_Handler+0x284>)
    2488:	f8d3 4280 	ldr.w	r4, [r3, #640]	; 0x280

    u32Tmp1 = M4_USART3->SR;
    248c:	f5a3 3340 	sub.w	r3, r3, #196608	; 0x30000
    2490:	681e      	ldr	r6, [r3, #0]
    u32Tmp2 = M4_USART3->CR1;
    2492:	68dd      	ldr	r5, [r3, #12]
    /* USART Ch.3 Receive error */
    if ((u32Tmp2 & BIT_MASK_05) && (u32Tmp1 & (BIT_MASK_00 | BIT_MASK_01 | BIT_MASK_03)) && (VSSEL137 & BIT_MASK_00))
    2494:	f015 0f20 	tst.w	r5, #32
    2498:	d006      	beq.n	24a8 <IRQ137_Handler+0x24>
    249a:	f016 0f0b 	tst.w	r6, #11
    249e:	d003      	beq.n	24a8 <IRQ137_Handler+0x24>
    24a0:	f014 0f01 	tst.w	r4, #1
    24a4:	f040 80e2 	bne.w	266c <IRQ137_Handler+0x1e8>
    {
        Usart3RxErr_IrqHandler();
    }
    /* USART Ch.3 Receive completed */
    if ((u32Tmp2 & u32Tmp1) && (VSSEL137 & BIT_MASK_01))
    24a8:	422e      	tst	r6, r5
    24aa:	d00b      	beq.n	24c4 <IRQ137_Handler+0x40>
    24ac:	f014 0f02 	tst.w	r4, #2
    24b0:	f040 80df 	bne.w	2672 <IRQ137_Handler+0x1ee>
    {
        Usart3RxEnd_IrqHandler();
    }
    /* USART Ch.3 Transmit data empty */
    if ((u32Tmp2 & u32Tmp1) && (VSSEL137 & BIT_MASK_02))
    24b4:	f014 0f04 	tst.w	r4, #4
    24b8:	f040 80de 	bne.w	2678 <IRQ137_Handler+0x1f4>
    {
        Usart3TxEmpty_IrqHandler();
    }
    /* USART Ch.3 Transmit completed */
    if ((u32Tmp2 & u32Tmp1) && (VSSEL137 & BIT_MASK_03))
    24bc:	f014 0f08 	tst.w	r4, #8
    24c0:	f040 80dd 	bne.w	267e <IRQ137_Handler+0x1fa>
    {
        Usart3TxEnd_IrqHandler();
    }
    /* USART Ch.3 Receive timeout */
    if ((u32Tmp2 & BIT_MASK_01) && (u32Tmp1 & BIT_MASK_08) && (VSSEL137 & BIT_MASK_04))
    24c4:	f015 0f02 	tst.w	r5, #2
    24c8:	d006      	beq.n	24d8 <IRQ137_Handler+0x54>
    24ca:	f416 7f80 	tst.w	r6, #256	; 0x100
    24ce:	d003      	beq.n	24d8 <IRQ137_Handler+0x54>
    24d0:	f014 0f10 	tst.w	r4, #16
    24d4:	f040 80d6 	bne.w	2684 <IRQ137_Handler+0x200>
    {
        Usart3RxTO_IrqHandler();
    }

    u32Tmp1 = M4_USART4->SR;
    24d8:	4b8c      	ldr	r3, [pc, #560]	; (270c <IRQ137_Handler+0x288>)
    24da:	681e      	ldr	r6, [r3, #0]
    u32Tmp2 = M4_USART4->CR1;
    24dc:	68dd      	ldr	r5, [r3, #12]
    /* USART Ch.4 Receive error */
    if ((u32Tmp2 & BIT_MASK_05) && (u32Tmp1 & (BIT_MASK_00 | BIT_MASK_01 | BIT_MASK_03)) && (VSSEL137 & BIT_MASK_05))
    24de:	f015 0f20 	tst.w	r5, #32
    24e2:	d006      	beq.n	24f2 <IRQ137_Handler+0x6e>
    24e4:	f016 0f0b 	tst.w	r6, #11
    24e8:	d003      	beq.n	24f2 <IRQ137_Handler+0x6e>
    24ea:	f014 0f20 	tst.w	r4, #32
    24ee:	f040 80cc 	bne.w	268a <IRQ137_Handler+0x206>
    {
        Usart4RxErr_IrqHandler();
    }
    /* USART Ch.4 Receive completed */
    if ((u32Tmp2 & u32Tmp1) && (VSSEL137 & BIT_MASK_06))
    24f2:	422e      	tst	r6, r5
    24f4:	d00b      	beq.n	250e <IRQ137_Handler+0x8a>
    24f6:	f014 0f40 	tst.w	r4, #64	; 0x40
    24fa:	f040 80c9 	bne.w	2690 <IRQ137_Handler+0x20c>
    {
        Usart4RxEnd_IrqHandler();
    }
    /* USART Ch.4 Transmit data empty */
    if ((u32Tmp2 & u32Tmp1) && (VSSEL137 & BIT_MASK_07))
    24fe:	f014 0f80 	tst.w	r4, #128	; 0x80
    2502:	f040 80c8 	bne.w	2696 <IRQ137_Handler+0x212>
    {
        Usart4TxEmpty_IrqHandler();
    }
    /* USART Ch.4 Transmit completed */
    if ((u32Tmp2 & u32Tmp1) && (VSSEL137 & BIT_MASK_08))
    2506:	f414 7f80 	tst.w	r4, #256	; 0x100
    250a:	f040 80c7 	bne.w	269c <IRQ137_Handler+0x218>
    {
        Usart4TxEnd_IrqHandler();
    }
    /* USART Ch.4 Receive timeout */
    if ((u32Tmp2 & BIT_MASK_01) && (u32Tmp1 & BIT_MASK_08) && (VSSEL137 & BIT_MASK_09))
    250e:	f015 0f02 	tst.w	r5, #2
    2512:	d006      	beq.n	2522 <IRQ137_Handler+0x9e>
    2514:	f416 7f80 	tst.w	r6, #256	; 0x100
    2518:	d003      	beq.n	2522 <IRQ137_Handler+0x9e>
    251a:	f414 7f00 	tst.w	r4, #512	; 0x200
    251e:	f040 80c0 	bne.w	26a2 <IRQ137_Handler+0x21e>
    {
        Usart4RxTO_IrqHandler();
    }

    u32Tmp1 = M4_SPI1->CR1;
    2522:	4b7b      	ldr	r3, [pc, #492]	; (2710 <IRQ137_Handler+0x28c>)
    2524:	685d      	ldr	r5, [r3, #4]
    u32Tmp2 = M4_SPI1->SR;
    2526:	695e      	ldr	r6, [r3, #20]
    /* SPI Ch.1 Receive completed */
    if ((u32Tmp1 & BIT_MASK_10) && (u32Tmp2 & BIT_MASK_07) && (VSSEL137 & BIT_MASK_11))
    2528:	f415 6f80 	tst.w	r5, #1024	; 0x400
    252c:	d006      	beq.n	253c <IRQ137_Handler+0xb8>
    252e:	f016 0f80 	tst.w	r6, #128	; 0x80
    2532:	d003      	beq.n	253c <IRQ137_Handler+0xb8>
    2534:	f414 6f00 	tst.w	r4, #2048	; 0x800
    2538:	f040 80b6 	bne.w	26a8 <IRQ137_Handler+0x224>
    {
        Spi1RxEnd_IrqHandler();
    }
    /* SPI Ch.1 Transmit buf empty */
    if ((u32Tmp1 & BIT_MASK_09) && (u32Tmp2 & BIT_MASK_05) && (VSSEL137 & BIT_MASK_12))
    253c:	f415 7f00 	tst.w	r5, #512	; 0x200
    2540:	d006      	beq.n	2550 <IRQ137_Handler+0xcc>
    2542:	f016 0f20 	tst.w	r6, #32
    2546:	d003      	beq.n	2550 <IRQ137_Handler+0xcc>
    2548:	f414 5f80 	tst.w	r4, #4096	; 0x1000
    254c:	f040 80af 	bne.w	26ae <IRQ137_Handler+0x22a>
    {
        Spi1TxEmpty_IrqHandler();
    }
    /* SPI Ch.1 bus idle */
    if ((u32Tmp1 & BIT_MASK_11) && (!(u32Tmp2 & BIT_MASK_00)) && (VSSEL137 & BIT_MASK_13))
    2550:	f415 6f00 	tst.w	r5, #2048	; 0x800
    2554:	d006      	beq.n	2564 <IRQ137_Handler+0xe0>
    2556:	f016 0f01 	tst.w	r6, #1
    255a:	d103      	bne.n	2564 <IRQ137_Handler+0xe0>
    255c:	f414 5f00 	tst.w	r4, #8192	; 0x2000
    2560:	f040 80a8 	bne.w	26b4 <IRQ137_Handler+0x230>
    {
        Spi1Idle_IrqHandler();
    }
    /* SPI Ch.1 parity/overflow/underflow/mode error */
    if ((u32Tmp1 & BIT_MASK_08)                                                 &&  \
    2564:	f415 7f80 	tst.w	r5, #256	; 0x100
    2568:	d006      	beq.n	2578 <IRQ137_Handler+0xf4>
    256a:	f016 0f1d 	tst.w	r6, #29
    256e:	d003      	beq.n	2578 <IRQ137_Handler+0xf4>
        ((u32Tmp2 & (BIT_MASK_00 | BIT_MASK_02 | BIT_MASK_03 | BIT_MASK_04)))   &&  \
    2570:	f414 4f80 	tst.w	r4, #16384	; 0x4000
    2574:	f040 80a1 	bne.w	26ba <IRQ137_Handler+0x236>
        (VSSEL137 & BIT_MASK_14))
    {
        Spi1Err_IrqHandler();
    }

    u32Tmp1 = M4_SPI2->CR1;
    2578:	4b66      	ldr	r3, [pc, #408]	; (2714 <IRQ137_Handler+0x290>)
    257a:	685d      	ldr	r5, [r3, #4]
    u32Tmp2 = M4_SPI2->SR;
    257c:	695e      	ldr	r6, [r3, #20]
    /* SPI Ch.2 Receive completed */
    if ((u32Tmp1 & BIT_MASK_10) && (u32Tmp2 & BIT_MASK_07) && (VSSEL137 & BIT_MASK_16))
    257e:	f415 6f80 	tst.w	r5, #1024	; 0x400
    2582:	d006      	beq.n	2592 <IRQ137_Handler+0x10e>
    2584:	f016 0f80 	tst.w	r6, #128	; 0x80
    2588:	d003      	beq.n	2592 <IRQ137_Handler+0x10e>
    258a:	f414 3f80 	tst.w	r4, #65536	; 0x10000
    258e:	f040 8097 	bne.w	26c0 <IRQ137_Handler+0x23c>
    {
        Spi2RxEnd_IrqHandler();
    }
    /* SPI Ch.2 Transmit buf empty */
    if ((u32Tmp1 & BIT_MASK_09) && (u32Tmp2 & BIT_MASK_05) && (VSSEL137 & BIT_MASK_17))
    2592:	f415 7f00 	tst.w	r5, #512	; 0x200
    2596:	d006      	beq.n	25a6 <IRQ137_Handler+0x122>
    2598:	f016 0f20 	tst.w	r6, #32
    259c:	d003      	beq.n	25a6 <IRQ137_Handler+0x122>
    259e:	f414 3f00 	tst.w	r4, #131072	; 0x20000
    25a2:	f040 8090 	bne.w	26c6 <IRQ137_Handler+0x242>
    {
        Spi2TxEmpty_IrqHandler();
    }
    /* SPI Ch.2 bus idle */
    if ((u32Tmp1 & BIT_MASK_11) && (!(u32Tmp2 & BIT_MASK_00)) && (VSSEL137 & BIT_MASK_18))
    25a6:	f415 6f00 	tst.w	r5, #2048	; 0x800
    25aa:	d006      	beq.n	25ba <IRQ137_Handler+0x136>
    25ac:	f016 0f01 	tst.w	r6, #1
    25b0:	d103      	bne.n	25ba <IRQ137_Handler+0x136>
    25b2:	f414 2f80 	tst.w	r4, #262144	; 0x40000
    25b6:	f040 8089 	bne.w	26cc <IRQ137_Handler+0x248>
    {
        Spi2Idle_IrqHandler();
    }
    /* SPI Ch.2 parity/overflow/underflow/mode error */
    if ((u32Tmp1 & BIT_MASK_08)                                                 &&  \
    25ba:	f415 7f80 	tst.w	r5, #256	; 0x100
    25be:	d006      	beq.n	25ce <IRQ137_Handler+0x14a>
    25c0:	f016 0f1d 	tst.w	r6, #29
    25c4:	d003      	beq.n	25ce <IRQ137_Handler+0x14a>
        ((u32Tmp2 & (BIT_MASK_00 | BIT_MASK_02 | BIT_MASK_03 | BIT_MASK_04)))   &&  \
    25c6:	f414 2f00 	tst.w	r4, #524288	; 0x80000
    25ca:	f040 8082 	bne.w	26d2 <IRQ137_Handler+0x24e>
        (VSSEL137 & BIT_MASK_19))
    {
        Spi2Err_IrqHandler();
    }

    u32Tmp1 = M4_SPI3->CR1;
    25ce:	4b52      	ldr	r3, [pc, #328]	; (2718 <IRQ137_Handler+0x294>)
    25d0:	685d      	ldr	r5, [r3, #4]
    u32Tmp2 = M4_SPI3->SR;
    25d2:	695e      	ldr	r6, [r3, #20]
    /* SPI Ch.3 Receive completed */
    if ((u32Tmp1 & BIT_MASK_10) && (u32Tmp2 & BIT_MASK_07) && (VSSEL137 & BIT_MASK_21))
    25d4:	f415 6f80 	tst.w	r5, #1024	; 0x400
    25d8:	d005      	beq.n	25e6 <IRQ137_Handler+0x162>
    25da:	f016 0f80 	tst.w	r6, #128	; 0x80
    25de:	d002      	beq.n	25e6 <IRQ137_Handler+0x162>
    25e0:	f414 1f00 	tst.w	r4, #2097152	; 0x200000
    25e4:	d178      	bne.n	26d8 <IRQ137_Handler+0x254>
    {
        Spi3RxEnd_IrqHandler();
    }
    /* SPI Ch.3 Transmit buf empty */
    if ((u32Tmp1 & BIT_MASK_09) && (u32Tmp2 & BIT_MASK_05) && (VSSEL137 & BIT_MASK_22))
    25e6:	f415 7f00 	tst.w	r5, #512	; 0x200
    25ea:	d005      	beq.n	25f8 <IRQ137_Handler+0x174>
    25ec:	f016 0f20 	tst.w	r6, #32
    25f0:	d002      	beq.n	25f8 <IRQ137_Handler+0x174>
    25f2:	f414 0f80 	tst.w	r4, #4194304	; 0x400000
    25f6:	d172      	bne.n	26de <IRQ137_Handler+0x25a>
    {
        Spi3TxEmpty_IrqHandler();
    }
    /* SPI Ch.3 bus idle */
    if ((u32Tmp1 & BIT_MASK_11) && (!(u32Tmp2 & BIT_MASK_00)) && (VSSEL137 & BIT_MASK_23))
    25f8:	f415 6f00 	tst.w	r5, #2048	; 0x800
    25fc:	d005      	beq.n	260a <IRQ137_Handler+0x186>
    25fe:	f016 0f01 	tst.w	r6, #1
    2602:	d102      	bne.n	260a <IRQ137_Handler+0x186>
    2604:	f414 0f00 	tst.w	r4, #8388608	; 0x800000
    2608:	d16c      	bne.n	26e4 <IRQ137_Handler+0x260>
    {
        Spi3Idle_IrqHandler();
    }
    /* SPI Ch.3 parity/overflow/underflow/mode error */
    if ((u32Tmp1 & BIT_MASK_08)                                                 &&  \
    260a:	f415 7f80 	tst.w	r5, #256	; 0x100
    260e:	d005      	beq.n	261c <IRQ137_Handler+0x198>
    2610:	f016 0f1d 	tst.w	r6, #29
    2614:	d002      	beq.n	261c <IRQ137_Handler+0x198>
        ((u32Tmp2 & (BIT_MASK_00 | BIT_MASK_02 | BIT_MASK_03 | BIT_MASK_04)))   &&  \
    2616:	f014 7f80 	tst.w	r4, #16777216	; 0x1000000
    261a:	d166      	bne.n	26ea <IRQ137_Handler+0x266>
        (VSSEL137 & BIT_MASK_24))
    {
        Spi3Err_IrqHandler();
    }

    u32Tmp1 = M4_SPI4->CR1;
    261c:	4b3f      	ldr	r3, [pc, #252]	; (271c <IRQ137_Handler+0x298>)
    261e:	685d      	ldr	r5, [r3, #4]
    u32Tmp2 = M4_SPI4->SR;
    2620:	695e      	ldr	r6, [r3, #20]
   /* SPI Ch.4 Receive completed */
    if ((u32Tmp1 & BIT_MASK_10) && (u32Tmp2 & BIT_MASK_07) && (VSSEL137 & BIT_MASK_26))
    2622:	f415 6f80 	tst.w	r5, #1024	; 0x400
    2626:	d005      	beq.n	2634 <IRQ137_Handler+0x1b0>
    2628:	f016 0f80 	tst.w	r6, #128	; 0x80
    262c:	d002      	beq.n	2634 <IRQ137_Handler+0x1b0>
    262e:	f014 6f80 	tst.w	r4, #67108864	; 0x4000000
    2632:	d15d      	bne.n	26f0 <IRQ137_Handler+0x26c>
    {
        Spi4RxEnd_IrqHandler();
    }
    /* SPI Ch.4 Transmit buf empty */
    if ((u32Tmp1 & BIT_MASK_09) && (u32Tmp2 & BIT_MASK_05) && (VSSEL137 & BIT_MASK_27))
    2634:	f415 7f00 	tst.w	r5, #512	; 0x200
    2638:	d005      	beq.n	2646 <IRQ137_Handler+0x1c2>
    263a:	f016 0f20 	tst.w	r6, #32
    263e:	d002      	beq.n	2646 <IRQ137_Handler+0x1c2>
    2640:	f014 6f00 	tst.w	r4, #134217728	; 0x8000000
    2644:	d157      	bne.n	26f6 <IRQ137_Handler+0x272>
    {
        Spi4TxEmpty_IrqHandler();
    }
    /* SPI Ch.4 bus idle */
    if ((u32Tmp1 & BIT_MASK_11) && (!(u32Tmp2 & BIT_MASK_00)) && (VSSEL137 & BIT_MASK_28))
    2646:	f415 6f00 	tst.w	r5, #2048	; 0x800
    264a:	d005      	beq.n	2658 <IRQ137_Handler+0x1d4>
    264c:	f016 0f01 	tst.w	r6, #1
    2650:	d102      	bne.n	2658 <IRQ137_Handler+0x1d4>
    2652:	f014 5f80 	tst.w	r4, #268435456	; 0x10000000
    2656:	d151      	bne.n	26fc <IRQ137_Handler+0x278>
    {
        Spi4Idle_IrqHandler();
    }
    /* SPI Ch.4 parity/overflow/underflow/mode error */
    if ((u32Tmp1 & BIT_MASK_08)                                                 &&  \
    2658:	f415 7f80 	tst.w	r5, #256	; 0x100
    265c:	d005      	beq.n	266a <IRQ137_Handler+0x1e6>
    265e:	f016 0f1d 	tst.w	r6, #29
    2662:	d002      	beq.n	266a <IRQ137_Handler+0x1e6>
        ((u32Tmp2 & (BIT_MASK_00 | BIT_MASK_02 | BIT_MASK_03 | BIT_MASK_04)))   &&  \
    2664:	f014 5f00 	tst.w	r4, #536870912	; 0x20000000
    2668:	d14b      	bne.n	2702 <IRQ137_Handler+0x27e>
        (VSSEL137 & BIT_MASK_29))
    {
        Spi4Err_IrqHandler();
    }
}
    266a:	bd70      	pop	{r4, r5, r6, pc}
        Usart3RxErr_IrqHandler();
    266c:	f3af 8000 	nop.w
    2670:	e71a      	b.n	24a8 <IRQ137_Handler+0x24>
        Usart3RxEnd_IrqHandler();
    2672:	f3af 8000 	nop.w
    2676:	e71d      	b.n	24b4 <IRQ137_Handler+0x30>
        Usart3TxEmpty_IrqHandler();
    2678:	f3af 8000 	nop.w
    267c:	e71e      	b.n	24bc <IRQ137_Handler+0x38>
        Usart3TxEnd_IrqHandler();
    267e:	f3af 8000 	nop.w
    2682:	e71f      	b.n	24c4 <IRQ137_Handler+0x40>
        Usart3RxTO_IrqHandler();
    2684:	f3af 8000 	nop.w
    2688:	e726      	b.n	24d8 <IRQ137_Handler+0x54>
        Usart4RxErr_IrqHandler();
    268a:	f3af 8000 	nop.w
    268e:	e730      	b.n	24f2 <IRQ137_Handler+0x6e>
        Usart4RxEnd_IrqHandler();
    2690:	f3af 8000 	nop.w
    2694:	e733      	b.n	24fe <IRQ137_Handler+0x7a>
        Usart4TxEmpty_IrqHandler();
    2696:	f3af 8000 	nop.w
    269a:	e734      	b.n	2506 <IRQ137_Handler+0x82>
        Usart4TxEnd_IrqHandler();
    269c:	f3af 8000 	nop.w
    26a0:	e735      	b.n	250e <IRQ137_Handler+0x8a>
        Usart4RxTO_IrqHandler();
    26a2:	f3af 8000 	nop.w
    26a6:	e73c      	b.n	2522 <IRQ137_Handler+0x9e>
        Spi1RxEnd_IrqHandler();
    26a8:	f3af 8000 	nop.w
    26ac:	e746      	b.n	253c <IRQ137_Handler+0xb8>
        Spi1TxEmpty_IrqHandler();
    26ae:	f3af 8000 	nop.w
    26b2:	e74d      	b.n	2550 <IRQ137_Handler+0xcc>
        Spi1Idle_IrqHandler();
    26b4:	f3af 8000 	nop.w
    26b8:	e754      	b.n	2564 <IRQ137_Handler+0xe0>
        Spi1Err_IrqHandler();
    26ba:	f3af 8000 	nop.w
    26be:	e75b      	b.n	2578 <IRQ137_Handler+0xf4>
        Spi2RxEnd_IrqHandler();
    26c0:	f3af 8000 	nop.w
    26c4:	e765      	b.n	2592 <IRQ137_Handler+0x10e>
        Spi2TxEmpty_IrqHandler();
    26c6:	f3af 8000 	nop.w
    26ca:	e76c      	b.n	25a6 <IRQ137_Handler+0x122>
        Spi2Idle_IrqHandler();
    26cc:	f3af 8000 	nop.w
    26d0:	e773      	b.n	25ba <IRQ137_Handler+0x136>
        Spi2Err_IrqHandler();
    26d2:	f3af 8000 	nop.w
    26d6:	e77a      	b.n	25ce <IRQ137_Handler+0x14a>
        Spi3RxEnd_IrqHandler();
    26d8:	f3af 8000 	nop.w
    26dc:	e783      	b.n	25e6 <IRQ137_Handler+0x162>
        Spi3TxEmpty_IrqHandler();
    26de:	f3af 8000 	nop.w
    26e2:	e789      	b.n	25f8 <IRQ137_Handler+0x174>
        Spi3Idle_IrqHandler();
    26e4:	f3af 8000 	nop.w
    26e8:	e78f      	b.n	260a <IRQ137_Handler+0x186>
        Spi3Err_IrqHandler();
    26ea:	f3af 8000 	nop.w
    26ee:	e795      	b.n	261c <IRQ137_Handler+0x198>
        Spi4RxEnd_IrqHandler();
    26f0:	f3af 8000 	nop.w
    26f4:	e79e      	b.n	2634 <IRQ137_Handler+0x1b0>
        Spi4TxEmpty_IrqHandler();
    26f6:	f3af 8000 	nop.w
    26fa:	e7a4      	b.n	2646 <IRQ137_Handler+0x1c2>
        Spi4Idle_IrqHandler();
    26fc:	f3af 8000 	nop.w
    2700:	e7aa      	b.n	2658 <IRQ137_Handler+0x1d4>
        Spi4Err_IrqHandler();
    2702:	f3af 8000 	nop.w
}
    2706:	e7b0      	b.n	266a <IRQ137_Handler+0x1e6>
    2708:	40051000 	andmi	r1, r5, r0
    270c:	40021400 	andmi	r1, r2, r0, lsl #8
    2710:	4001c000 	andmi	ip, r1, r0
    2714:	4001c400 	andmi	ip, r1, r0, lsl #8
    2718:	40020000 	andmi	r0, r2, r0
    271c:	40020400 	andmi	r0, r2, r0, lsl #8

00002720 <IRQ138_Handler>:
 *******************************************************************************
 ** \brief Int No.138 share IRQ handler
 **
 ******************************************************************************/
void IRQ138_Handler(void)
{
    2720:	b538      	push	{r3, r4, r5, lr}
    uint32_t u32Tmp1 = 0u;
    uint32_t VSSEL138 = M4_INTC->VSSEL138;
    2722:	4b89      	ldr	r3, [pc, #548]	; (2948 <IRQ138_Handler+0x228>)
    2724:	f8d3 4284 	ldr.w	r4, [r3, #644]	; 0x284

    u32Tmp1 = M4_TMR41->OCSRU;
    2728:	f5a3 3368 	sub.w	r3, r3, #237568	; 0x3a000
    272c:	8b1d      	ldrh	r5, [r3, #24]
    272e:	b2ad      	uxth	r5, r5
    /* Timer4 Ch.1 U phase higher compare match */
    if ((VSSEL138 & BIT_MASK_00) && (u32Tmp1 & BIT_MASK_04) && (u32Tmp1 & BIT_MASK_06))
    2730:	f014 0f01 	tst.w	r4, #1
    2734:	d004      	beq.n	2740 <IRQ138_Handler+0x20>
    2736:	f005 0350 	and.w	r3, r5, #80	; 0x50
    273a:	2b50      	cmp	r3, #80	; 0x50
    273c:	f000 80c2 	beq.w	28c4 <IRQ138_Handler+0x1a4>
    {
        Timer41GCMUH_IrqHandler();
    }
    /* Timer4 Ch.1 U phase lower compare match */
    if ((VSSEL138 & BIT_MASK_01) && (u32Tmp1 & BIT_MASK_05) && (u32Tmp1 & BIT_MASK_07))
    2740:	f014 0f02 	tst.w	r4, #2
    2744:	d004      	beq.n	2750 <IRQ138_Handler+0x30>
    2746:	f005 05a0 	and.w	r5, r5, #160	; 0xa0
    274a:	2da0      	cmp	r5, #160	; 0xa0
    274c:	f000 80bd 	beq.w	28ca <IRQ138_Handler+0x1aa>
    {
        Timer41GCMUL_IrqHandler();
    }

    u32Tmp1 = M4_TMR41->OCSRV;
    2750:	4b7e      	ldr	r3, [pc, #504]	; (294c <IRQ138_Handler+0x22c>)
    2752:	8b9d      	ldrh	r5, [r3, #28]
    2754:	b2ad      	uxth	r5, r5
    /* Timer4 Ch.1 V phase higher compare match */
    if ((VSSEL138 & BIT_MASK_02) && (u32Tmp1 & BIT_MASK_04) && (u32Tmp1 & BIT_MASK_06))
    2756:	f014 0f04 	tst.w	r4, #4
    275a:	d004      	beq.n	2766 <IRQ138_Handler+0x46>
    275c:	f005 0350 	and.w	r3, r5, #80	; 0x50
    2760:	2b50      	cmp	r3, #80	; 0x50
    2762:	f000 80b5 	beq.w	28d0 <IRQ138_Handler+0x1b0>
    {
        Timer41GCMVH_IrqHandler();
    }
    /* Timer4 Ch.1 V phase lower compare match */
    if ((VSSEL138 & BIT_MASK_03) && (u32Tmp1 & BIT_MASK_05) && (u32Tmp1 & BIT_MASK_07))
    2766:	f014 0f08 	tst.w	r4, #8
